(dp1
I0
F7.1401600000000016
sI1
F5.1328000000000014
sI2
F2.952
sI3
F9.0409600000000037
sI4
F2.4400000000000004
sI5
F7.1232000000000006
sI6
F2.952
sI7
F8.2327680000000019
sI8
F8.2327680000000019
sI9
F8.2327680000000019
sI10
F8.2327680000000019
sI11
F9.722944
sI12
F8.3612800000000007
sI13
F11.270976000000001
sI14
F9.2252800000000015
sI15
F9.3120000000000012
sI16
F11.385920000000004
sI17
F6.5052800000000008
sI18
F9.0869888000000003
sI19
F10.108736000000004
sI20
F9.0869888000000003
sI21
F7.7596800000000012
sI22
F8.449600000000002
sI23
F7.7596800000000012
sI24
F3.8160000000000007
sI25
F3.52
sI26
F7.7312000000000003
sI27
F5.4928000000000008
sI28
F2.9199999999999999
sI29
F19.500800000000012
sI30
F6.1776
sI31
F2.3999999999999999
sI32
F8.7632000000000012
sI33
F4.4800000000000004
sI34
F9.3681280000000022
sI35
F14.063360000000005
sI36
F10.460160000000004
sI37
F9.3681280000000022
sI38
F10.730560000000002
sI39
F4.3200000000000003
sI40
F4.4560000000000013
sI41
F13.065280000000001
sI42
F13.281600000000005
sI43
F3.9360000000000004
sI44
F13.862464000000001
sI45
F5.2560000000000011
sI46
F10.527040000000005
sI47
F11.641600000000004
sI48
F7.0185600000000017
sI49
F8.9296000000000006
sI50
F5.1600000000000001
sI51
F7.3680000000000021
sI52
F3.3616000000000006
sI53
F6.5680000000000005
sI54
F10.361600000000003
sI55
F5.4761600000000019
sI56
F7.6544000000000008
sI57
F4.4160000000000004
sI58
F3.8160000000000007
sI59
F6.50528
sI60
F5.281600000000001
sI61
F7.52928
sI62
F4.8361600000000005
sI63
F4.7952000000000004
sI64
F11.083200000000003
sI65
F5.2560000000000002
sI66
F8.6505600000000022
sI67
F6.6048
sI68
F9.0601600000000015
sI69
F3.3616000000000006
sI70
F14.396160000000004
sI71
F6.208000000000002
sI72
F8.4032
sI73
F7.1248000000000022
sI74
F13.824960000000004
sI75
F14.396160000000004
sI76
F6.208000000000002
sI77
F12.6256
sI78
F4.3200000000000003
sI79
F7.6560000000000006
sI80
F9.2176000000000009
sI81
F12.625600000000002
sI82
F10.94496
sI83
F5.4761600000000019
sI84
F7.5264000000000006
sI85
F11.659520000000004
sI86
F9.122048000000003
sI87
F10.136320000000001
sI88
F10.410560000000004
sI89
F9.4950400000000013
sI90
F9.3072000000000017
sI91
F8.7017600000000037
sI92
F7.3101440000000002
sI93
F7.8876800000000014
sI94
F12.661760000000003
sI95
F8.4032000000000018
sI96
F7.1248000000000005
sI97
F12.717760000000002
sI98
F18.520320000000005
sI99
F11.191360000000003
sI100
F9.1920000000000002
sI101
F14.219008000000004
sI102
F18.051520000000007
sI103
F18.051520000000007
sI104
F8.5120000000000005
sI105
F16.907200000000007
sI106
F8.5120000000000005
sI107
F12.098560000000003
sI108
F8.5392000000000028
sI109
F11.242560000000003
sI110
F7.8480000000000008
sI111
F4.4892800000000008
sI112
F8.6784000000000017
sI113
F12.788800000000004
sI114
F9.1748480000000026
sI115
F8.4032
sI116
F12.327360000000006
sI117
F12.788800000000004
sI118
F9.1748480000000026
sI119
F9.1545600000000018
sI120
F8.6672000000000011
sI121
F2.4000000000000004
sI122
F1.8
sI123
F8.8745600000000024
sI124
F8.8745600000000024
sI125
F6.6998400000000018
sI126
F6.6998400000000018
sI127
F7.1598720000000009
sI128
F6.6998400000000018
sI129
F7.1598720000000009
sI130
F10.519040000000004
sI131
F10.533888000000003
sI132
F9.9673600000000047
sI133
F11.554048000000003
sI134
F9.5738880000000037
sI135
F9.3878400000000024
sI136
F8.9561600000000023
sI137
F7.8876800000000014
sI138
F8.6096000000000039
sI139
F10.183027200000001
sI140
F11.478784000000005
sI141
F10.183027200000003
sI142
F8.5696640000000013
sI143
F6.5820800000000013
sI144
F8.2409600000000012
sI145
F8.2409600000000012
sI146
F3.5200000000000005
sI147
F4.5327999999999999
sI148
F5.2560000000000002
sI149
F2.952
sI150
F11.494003200000003
sI151
F10.454784000000002
sI152
F9.3638272000000029
sI153
F10.766848000000003
sI154
F6.6998400000000018
sI155
F7.1248000000000005
sI156
F6.9775999999999998
sI157
F14.416192000000002
sI158
F8.2409600000000012
sI159
F15.745024000000006
sI160
F10.114560000000003
sI161
F10.559360000000003
sI162
F7.1232000000000024
sI163
F10.720447999999998
sI164
F8.1927680000000009
sI165
F10.096908800000003
sI166
F9.3133440000000025
sI167
F10.016780800000005
sI168
F5.2560000000000002
sI169
F9.5529600000000023
sI170
F8.7632000000000012
sI171
F6.3588480000000018
sI172
F6.6985600000000023
sI173
F10.530560000000003
sI174
F5.5952000000000002
sI175
F7.219302400000001
sI176
F5.3809280000000017
sI177
F15.031744000000003
sI178
F10.33248
sI179
F12.963264000000002
sI180
F10.848768000000003
sI181
F6.3588480000000009
sI182
F9.320960000000003
sI183
F2.4400000000000004
sI184
F13.429184000000001
sI185
F11.371264000000002
sI186
F7.7289600000000016
sI187
F1.8
sI188
F10.280960000000002
sI189
F2.952
sI190
F12.24832
sI191
F10.080960000000001
sI192
F14.197184
sI193
F11.555584000000001
sI194
F7.1831680000000011
sI195
F7.1831680000000011
sI196
F10.345984000000001
sI197
F9.6409600000000015
sI198
F9.6809600000000042
sI199
F13.045184000000001
sI200
F8.8409600000000008
sI201
F13.685184000000001
sI202
F10.513984000000002
sI203
F10.513984000000002
sI204
F10.513984000000002
sI205
F5.3809280000000017
sI206
F5.3047424000000021
sI207
F5.3047424000000012
sI208
F5.3047424000000012
sI209
F5.3047424000000012
sI210
F8.2409600000000012
sI211
F10.490560000000002
sI212
F12.323904000000002
sI213
F9.3133440000000007
sI214
F12.707584000000004
sI215
F7.5927680000000013
sI216
F13.035008000000005
sI217
F9.5529600000000023
sI218
F11.530560000000003
sI219
F13.035008000000005
sI220
F13.035008000000005
sI221
F14.065024000000005
sI222
F15.139904000000001
sI223
F16.317760000000003
sI224
F7.7248000000000001
sI225
F12.443200000000004
sI226
F14.054208000000006
sI227
F14.054208000000006
sI228
F12.243366400000003
sI229
F12.243366400000003
sI230
F7.8313600000000028
sI231
F7.1232000000000024
sI232
F8.5081600000000019
sI233
F8.922880000000001
sI234
F7.2985600000000019
sI235
F2.9199999999999999
sI236
F9.4518400000000025
sI237
F8.2448512000000012
sI238
F8.2448512000000012
sI239
F9.0560640000000028
sI240
F9.6973312000000007
sI241
F7.7988480000000013
sI242
F10.070080000000003
sI243
F9.0560640000000028
sI244
F7.9427200000000022
sI245
F8.6783999999999999
sI246
F3.3360000000000003
sI247
F2.9199999999999999
sI248
F3.3360000000000003
sI249
F3.3360000000000003
sI250
F3.3360000000000003
sI251
F3.6688000000000005
sI252
F12.469760000000004
sI253
F8.0192000000000014
sI254
F10.559360000000003
sI255
F10.559360000000003
sI256
F14.474624000000002
sI257
F14.474624000000002
sI258
F6.6985600000000005
sI259
F2.9520000000000004
sI260
F2.4400000000000004
sI261
F4.4160000000000004
sI262
F3.52
sI263
F3.3360000000000003
sI264
F15.904768000000008
sI265
F15.467008000000007
sI266
F13.601600000000003
sI267
F14.937088000000008
sI268
F14.656768000000007
sI269
F3.3360000000000003
sI270
F12.122880000000002
sI271
F6.2810240000000022
sI272
F8.3689600000000031
sI273
F9.2112000000000016
sI274
F4.8399999999999999
sI275
F4.7999999999999998
sI276
F4.4559999999999995
sI277
F9.9113600000000037
sI278
F10.511360000000003
sI279
F10.511360000000003
sI280
F8.3802240000000001
sI281
F8.3802240000000001
sI282
F8.3802240000000001
sI283
F9.6663680000000038
sI284
F9.0649600000000028
sI285
F2.9199999999999999
sI286
F5.3047424000000012
sI287
F5.3809280000000017
sI288
F5.3047424000000012
sI289
F7.6388480000000003
sI290
F7.298560000000001
sI291
F7.2985600000000028
sI292
F3.9360000000000004
sI293
F2.9199999999999999
sI294
F2.9199999999999999
sI295
F11.596574720000005
sI296
F12.064678400000004
sI297
F11.195968000000004
sI298
F5.3047424000000012
sI299
F6.1072000000000015
sI300
F4.5289600000000014
sI301
F2.9199999999999999
sI302
F5.1280000000000001
sI303
F5.1280000000000001
sI304
F3.3360000000000007
sI305
F3.9360000000000004
sI306
F2.9199999999999999
sI307
F5.3047424000000012
sI308
F5.3809280000000017
sI309
F5.3047424000000012
sI310
F15.600960000000006
sI311
F1.8
sI312
F3.8400000000000007
sI313
F13.820928000000007
sI314
F13.392448000000005
sI315
F15.600960000000004
sI316
F10.566400000000003
sI317
F8.5199999999999996
sI318
F6.0752000000000006
sI319
F10.050560000000003
sI320
F5.3809280000000008
sI321
F8.2409600000000029
sI322
F3.3616000000000001
sI323
F2.9520000000000004
sI324
F2.9520000000000004
sI325
F2.9199999999999999
sI326
F2.3999999999999999
sI327
F3.3360000000000003
sI328
F3.3360000000000007
sI329
F5.4400000000000013
sI330
F6.7305600000000023
sI331
F2.9520000000000004
sI332
F10.767360000000004
sI333
F9.5577600000000036
sI334
F7.298560000000001
sI335
F5.3809280000000008
sI336
F4.3919999999999995
sI337
F12.738214400000002
sI338
F13.506368000000007
sI339
F13.390400000000005
sI340
F10.383360000000001
sI341
F4.9920000000000009
sI342
F4.4892800000000008
sI343
F3.689280000000001
sI344
F8.5555200000000013
sI345
F4.5328000000000017
sI346
F12.559360000000002
sI347
F4.4892800000000008
sI348
F2.9520000000000004
sI349
F4.9936000000000007
sI350
F2.952
sI351
F2.952
sI352
F7.2784000000000031
sI353
F7.2784000000000031
sI354
F3.3616000000000001
sI355
F1
sI356
F1.8
sI357
F4.9600000000000009
sI358
F2.3999999999999999
sI359
F2.9199999999999999
sI360
F3.7200000000000006
sI361
F1.8
sI362
F10.464000000000002
sI363
F6.2399999999999993
sI364
F3.2400000000000002
sI365
F7.911999999999999
sI366
F2.3999999999999999
sI367
F7.1120000000000001
sI368
F4.7999999999999998
sI369
F7.8320000000000007
sI370
F5.9920000000000009
sI371
F7.2656000000000018
sI372
F7.2656000000000018
sI373
F7.2656000000000018
sI374
F9.7919999999999998
sI375
F7.5199999999999996
sI376
F5.9920000000000009
sI377
F7.2656000000000001
sI378
F7.5200000000000014
sI379
F5.9920000000000009
sI380
F9.361600000000001
sI381
F6.7520000000000007
sI382
F5.9920000000000009
sI383
F5.7936000000000005
sI384
F10.705600000000002
sI385
F3.5920000000000001
sI386
F8.6255999999999986
sI387
F5.7936000000000005
sI388
F7.2656000000000001
sI389
F3.5920000000000005
sI390
F3.8736000000000006
sI391
F7.2016000000000009
sI392
F7.2016000000000009
sI393
F3.8736000000000006
sI394
F9.8240000000000034
sI395
F10.380800000000004
sI396
F10.592000000000002
sI397
F4.9600000000000009
sI398
F4.9600000000000009
sI399
F5.1600000000000001
sI400
F6.4528000000000008
sI401
F6.8160000000000007
sI402
F6.4528000000000008
sI403
F6.4528000000000008
sI404
F6.4528000000000008
sI405
F6.4528000000000008
sI406
F6.4528000000000008
sI407
F6.4528000000000008
sI408
F3.9760000000000004
sI409
F4.9600000000000009
sI410
F3.8159999999999998
sI411
F3.5200000000000005
sI412
F5.0422400000000005
sI413
F4.0528000000000013
sI414
F4.0528000000000013
sI415
F5.3632
sI416
F4.7040000000000006
sI417
F2.9199999999999999
sI418
F1.8
sI419
F4.7999999999999998
sI420
F3.3360000000000003
sI421
F6.3232000000000017
sI422
F6.3232000000000017
sI423
F6.3232000000000017
sI424
F5.3809280000000008
sI425
F5.4761600000000019
sI426
F5.5952000000000011
sI427
F9.1520000000000028
sI428
F7.3599999999999994
sI429
F2.9199999999999999
sI430
F10.990400000000001
sI431
F8.6080000000000005
sI432
F10.442560000000004
sI433
F12.305152
sI434
F8.8409600000000026
sI435
F8.3612800000000007
sI436
F14.389248000000006
sI437
F12.437248000000006
sI438
F7.1120000000000001
sI439
F14.772800000000004
sI440
F10.208000000000002
sI441
F4.3200000000000003
sI442
F10.064960000000003
sI443
F8.0272000000000023
sI444
F6.4399999999999995
sI445
F13.104960000000004
sI446
F8.4697600000000008
sI447
F8.4697600000000008
sI448
F11.385408000000004
sI449
F4.8361600000000005
sI450
F10.370560000000003
sI451
F9.722944
sI452
F2.952
sI453
F6.6985600000000023
sI454
F13.002304000000004
sI455
F13.045184000000001
sI456
F13.002304000000004
sI457
F8.8409600000000008
sI458
F11.299904000000003
sI459
F12.094003200000003
sI460
F11.494003200000003
sI461
F11.494003200000002
sI462
F5.2560000000000002
sI463
F10.016780800000005
sI464
F12.837632000000003
sI465
F8.449600000000002
sI466
F10.108736000000002
sI467
F12.837632000000003
sI468
F12.837632000000003
sI469
F12.837632000000003
sI470
F11.114560000000003
sI471
F8.2409600000000029
sI472
F10.089280000000002
sI473
F6.2544000000000013
sI474
F8.6096000000000021
sI475
F4.7440000000000007
sI476
F7.3101440000000011
sI477
F7.8876800000000005
sI478
F7.8876800000000014
sI479
F8.6096000000000004
sI480
F7.3101440000000011
sI481
F7.3101440000000029
sI482
F7.3101440000000011
sI483
F7.3101440000000011
sI484
F7.8876800000000005
sI485
F7.3101440000000011
sI486
F7.3101440000000029
sI487
F7.3101440000000029
sI488
F7.3101440000000011
sI489
F5.3809280000000017
sI490
F7.219302400000001
sI491
F6.3588480000000018
sI492
F7.2985600000000019
sI493
F7.1930880000000021
sI494
F7.1930880000000021
sI495
F7.1930880000000004
sI496
F7.2985600000000019
sI497
F10.345984000000001
sI498
F10.345984000000001
sI499
F9.2767872000000029
sI500
F9.2767872000000029
sI501
F12.064678400000002
sI502
F7.8265344000000026
sI503
F8.8042931200000005
sI504
F8.8042931200000005
sI505
F13.894656000000005
sI506
F7.8265344000000017
sI507
F10.651742720000003
sI508
F10.729984000000004
sI509
F4.4160000000000004
sI510
F3.8160000000000007
sI511
F4.5327999999999999
sI512
F4.5327999999999999
sI513
F12.101235200000005
sI514
F12.148224000000003
sI515
F12.185203200000004
sI516
F9.5760000000000041
sI517
F11.106560000000005
sI518
F15.904768000000008
sI519
F11.521600000000003
sI520
F17.525248000000012
sI521
F14.464
sI522
F11.936768000000004
sI523
F2.9199999999999999
sI524
F18.758080000000007
sI525
F8.5760000000000005
sI526
F20.73952000000001
sI527
F9.3456000000000028
sI528
F9.1840000000000011
sI529
F21.769920000000013
sI530
F13.056000000000004
sI531
F2.9520000000000004
sI532
F18.537920000000007
sI533
F9.5040000000000013
sI534
F7.4320000000000022
sI535
F18.520320000000009
sI536
F9.1920000000000002
sI537
F18.520320000000009
sI538
F9.1920000000000002
sI539
F14.568960000000006
sI540
F10.728960000000004
sI541
F9.6745600000000032
sI542
F7.0992000000000015
sI543
F14.406400000000005
sI544
F6.9775999999999998
sI545
F13.498560000000005
sI546
F13.491520000000003
sI547
F13.491520000000005
sI548
F6.3598720000000011
sI549
F11.074048000000003
sI550
F6.0878975999999998
sI551
F6.0878975999999998
sI552
F7.7248000000000001
sI553
F7.1798400000000022
sI554
F7.1798400000000022
sI555
F6.7438720000000023
sI556
F2.4400000000000004
sI557
F6.6998400000000018
sI558
F7.1248000000000005
sI559
F11.883328000000002
sI560
F12.004160000000002
sI561
F8.3225600000000011
sI562
F13.819238400000005
sI563
F12.917248000000004
sI564
F13.109760000000001
sI565
F10.019648000000004
sI566
F9.6745600000000032
sI567
F12.405568000000006
sI568
F14.256960000000003
sI569
F14.256960000000005
sI570
F11.727360000000004
sI571
F5.8601600000000005
sI572
F6.0751999999999997
sI573
F14.832960000000002
sI574
F9.9625600000000034
sI575
F7.1798400000000022
sI576
F7.1798400000000022
sI577
F7.1248000000000022
sI578
F7.7248000000000001
sI579
F10.148160000000003
sI580
F6.3552000000000017
sI581
F9.3481600000000036
sI582
F9.9625600000000034
sI583
F9.3681280000000022
sI584
F11.389760000000004
sI585
F5.4761600000000019
sI586
F10.148160000000004
sI587
F10.613760000000003
sI588
F9.6217600000000001
sI589
F9.6217600000000001
sI590
F9.6217600000000001
sI591
F9.6217600000000001
sI592
F9.6217600000000001
sI593
F2.9199999999999999
sI594
F10.608640000000003
sI595
F8.8976384000000017
sI596
F8.2976384000000003
sI597
F6.7305600000000023
sI598
F6.7305600000000023
sI599
F6.7305600000000023
sI600
F12.430400000000002
sI601
F9.0240000000000009
sI602
F6.7305600000000005
sI603
F7.4678400000000025
sI604
F6.2159999999999993
sI605
F5.8559999999999999
sI606
F5.8559999999999999
sI607
F4.7952000000000004
sI608
F5.7680000000000007
sI609
F2.952
sI610
F5.7680000000000016
sI611
F8.4506752000000009
sI612
F9.3133440000000007
sI613
F8.4506752000000009
sI614
F6.0752000000000006
sI615
F6.0752000000000006
sI616
F6.0752000000000006
sI617
F6.0752000000000024
sI618
F6.0752000000000006
sI619
F5.4761600000000019
sI620
F13.756582400000006
sI621
F10.479616000000002
sI622
F9.0432000000000023
sI623
F11.656960000000005
sI624
F8.0727680000000017
sI625
F7.8911999999999995
sI626
F7.1248000000000005
sI627
F12.837760000000005
sI628
F11.021760000000002
sI629
F11.397760000000002
sI630
F13.640448000000005
sI631
F8.0727680000000017
sI632
F7.9129600000000018
sI633
F7.9129600000000018
sI634
F8.8727680000000024
sI635
F8.9070080000000011
sI636
F8.8409600000000008
sI637
F9.440768000000002
sI638
F8.8409600000000026
sI639
F8.0727679999999999
sI640
F7.4582144000000019
sI641
F7.4582144000000019
sI642
F8.8409600000000026
sI643
F13.377088000000001
sI644
F11.000320000000002
sI645
F5.3809280000000008
sI646
F10.016320000000004
sI647
F8.8409600000000026
sI648
F8.8409600000000026
sI649
F2.9199999999999999
sI650
F3.3360000000000003
sI651
F6.2160000000000011
sI652
F12.307200000000003
sI653
F7.3488000000000024
sI654
F12.307200000000003
sI655
F10.731840000000002
sI656
F6.2810240000000022
sI657
F12.928000000000004
sI658
F7.0016000000000007
sI659
F8.2128000000000014
sI660
F10.976000000000001
sI661
F10.976000000000003
sI662
F10.976000000000003
sI663
F10.976000000000003
sI664
F10.976000000000003
sI665
F10.976000000000003
sI666
F13.568000000000005
sI667
F10.976000000000001
sI668
F8.2000000000000011
sI669
F4.072000000000001
sI670
F3.3360000000000003
sI671
F3.3360000000000003
sI672
F6.0800000000000001
sI673
F2.4400000000000004
sI674
F1.8
sI675
F2.952
sI676
F2.4400000000000004
sI677
F4.3920000000000003
sI678
F4.5136000000000003
sI679
F5.1135999999999999
sI680
F2.9520000000000004
sI681
F5.5935999999999995
sI682
F3.3616000000000006
sI683
F3.3616000000000001
sI684
F2.9520000000000004
sI685
F3.9616000000000007
sI686
F2.9520000000000004
sI687
F4.1692800000000005
sI688
F4.1692800000000005
sI689
F2.952
sI690
F9.4719999999999995
sI691
F3.9616000000000007
sI692
F4.3920000000000003
sI693
F2.4400000000000004
sI694
F4.5136000000000003
sI695
F4.5136000000000003
sI696
F4.5136000000000003
sI697
F4.5136000000000003
sI698
F4.2640000000000002
sI699
F5.8239999999999998
sI700
F9.2352000000000007
sI701
F9.9113600000000037
sI702
F2.9199999999999999
sI703
F3.9360000000000004
sI704
F5.1328000000000014
sI705
F5.3809280000000026
sI706
F7.7120000000000006
sI707
F2.9199999999999999
sI708
F6.7356800000000021
sI709
F7.1696000000000009
sI710
F6.7356800000000021
sI711
F8.2678400000000014
sI712
F6.8944000000000001
sI713
F13.867520000000003
sI714
F12.538560000000002
sI715
F7.8672000000000022
sI716
F6.8944000000000001
sI717
F6.4847999999999999
sI718
F6.4847999999999999
sI719
F7.2794240000000014
sI720
F4.5914240000000008
sI721
F6.1776
sI722
F5.2560000000000002
sI723
F6.5052800000000008
sI724
F5.2560000000000002
sI725
F9.659200000000002
sI726
F6.0559999999999992
sI727
F7.2976000000000001
sI728
F13.867520000000003
sI729
F7.8672000000000013
sI730
F6.5052800000000008
sI731
F7.9962240000000016
sI732
F6.8944000000000001
sI733
F4.8719999999999999
sI734
F13.931200000000004
sI735
F7.2976000000000001
sI736
F6.8944000000000001
sI737
F6.8944000000000001
sI738
F7.2976000000000001
sI739
F5.3760000000000012
sI740
F5.3760000000000012
sI741
F5.3760000000000003
sI742
F11.656960000000002
sI743
F2.3999999999999999
sI744
F4.8639999999999999
sI745
F13.453580800000003
sI746
F5.7680000000000007
sI747
F2.9520000000000004
sI748
F6.7305600000000023
sI749
F12.122880000000002
sI750
F6.2810240000000022
sI751
F9.5854720000000011
sI752
F10.730560000000002
sI753
F8.2409600000000012
sI754
F9.1218560000000029
sI755
F8.2974848000000012
sI756
F8.2974847999999994
sI757
F3.3616000000000006
sI758
F14.832960000000002
sI759
F9.200960000000002
sI760
F11.385600000000002
sI761
F3.3616000000000001
sI762
F7.1401600000000016
sI763
F12.064000000000002
sI764
F2.9520000000000004
sI765
F12.928000000000004
sI766
F10.671680000000002
sI767
F8.5696640000000031
sI768
F6.2159999999999993
sI769
F6.4320000000000013
sI770
F6.4319999999999995
sI771
F16.659456000000006
sI772
F7.0742144000000033
sI773
F7.5927680000000013
sI774
F4.0527999999999995
sI775
F4.2422400000000007
sI776
F5.3222400000000007
sI777
F3.3360000000000003
sI778
F6.6240000000000006
sI779
F2.4400000000000004
sI780
F3.8800000000000003
sI781
F4.7759999999999998
sI782
F2.4400000000000004
sI783
F3.3360000000000003
sI784
F1.8
sI785
F7.1401600000000034
sI786
F6.4847999999999999
sI787
F5.7680000000000007
sI788
F9.3120000000000012
sI789
F6.4847999999999999
sI790
F7.2976000000000001
sI791
F4.9936000000000007
sI792
F6.2042240000000008
sI793
F9.0256000000000007
sI794
F4.9936000000000007
sI795
F4.9936000000000007
sI796
F5.2560000000000002
sI797
F6.4848000000000017
sI798
F7.4943999999999997
sI799
F5.2560000000000002
sI800
F7.2976000000000001
sI801
F6.4848000000000017
sI802
F6.4847999999999999
sI803
F4.9936000000000007
sI804
F7.8620800000000006
sI805
F4.4892800000000008
sI806
F5.2560000000000002
sI807
F5.7680000000000016
sI808
F7.2976000000000001
sI809
F6.0752000000000024
sI810
F3.3616000000000001
sI811
F6.018880000000002
sI812
F6.2736000000000001
sI813
F7.0847999999999995
sI814
F4.3600000000000003
sI815
F6.4847999999999999
sI816
F6.0752000000000006
sI817
F5.281600000000001
sI818
F6.8944000000000001
sI819
F5.281600000000001
sI820
F5.7680000000000007
sI821
F14.907840000000004
sI822
F8.2217600000000015
sI823
F6.5820800000000022
sI824
F5.2560000000000002
sI825
F11.764800000000003
sI826
F6.7520000000000007
sI827
F6.0815999999999999
sI828
F6.4848000000000017
sI829
F6.5820800000000004
sI830
F6.3281280000000004
sI831
F6.6601600000000012
sI832
F4.5914240000000008
sI833
F5.2560000000000002
sI834
F5.2560000000000002
sI835
F6.2736000000000001
sI836
F7.0070400000000026
sI837
F7.5088000000000026
sI838
F6.2144000000000004
sI839
F5.7680000000000016
sI840
F5.2560000000000002
sI841
F6.5680000000000014
sI842
F6.8944000000000001
sI843
F4.9936000000000007
sI844
F7.1952000000000016
sI845
F7.7440000000000015
sI846
F7.1952000000000016
sI847
F7.0672000000000015
sI848
F7.5839999999999996
sI849
F7.6672000000000011
sI850
F7.0672000000000015
sI851
F7.0672000000000015
sI852
F7.0672000000000015
sI853
F8.0272000000000006
sI854
F7.6672000000000011
sI855
F8.2432000000000016
sI856
F8.2432000000000016
sI857
F8.0272000000000006
sI858
F7.6672000000000011
sI859
F7.6672000000000011
sI860
F6.6998400000000018
sI861
F17.235520000000008
sI862
F5.2560000000000002
sI863
F8.3225600000000028
sI864
F4.4160000000000004
sI865
F15.507520000000003
sI866
F12.277248000000004
sI867
F4.5327999999999999
sI868
F4.0527999999999995
sI869
F3.5520000000000005
sI870
F1.8
sI871
F6.6998400000000027
sI872
F11.959040000000005
sI873
F11.546560000000003
sI874
F6.6998400000000018
sI875
F12.897600000000004
sI876
F13.971200000000001
sI877
F6.8752000000000013
sI878
F6.6998400000000027
sI879
F6.359872000000002
sI880
F10.020352000000003
sI881
F10.525440000000003
sI882
F7.6580480000000017
sI883
F6.6998400000000027
sI884
F14.788416000000005
sI885
F14.788416000000005
sI886
F2.9199999999999999
sI887
F8.8832000000000022
sI888
F5.6832000000000011
sI889
F8.1065600000000018
sI890
F8.1065600000000018
sI891
F4.5327999999999999
sI892
F4.5327999999999999
sI893
F9.5760000000000023
sI894
F13.601600000000001
sI895
F11.106560000000002
sI896
F11.521600000000005
sI897
F10.728960000000002
sI898
F4.2422400000000007
sI899
F4.2422400000000007
sI900
F7.7225600000000014
sI901
F10.500352000000003
sI902
F8.4580480000000016
sI903
F10.156800000000002
sI904
F11.746560000000002
sI905
F6.6998400000000027
sI906
F9.6512000000000029
sI907
F9.6512000000000029
sI908
F8.3225600000000028
sI909
F11.458048000000003
sI910
F10.722560000000005
sI911
F16.723520000000008
sI912
F6.6998400000000027
sI913
F6.9520000000000017
sI914
F6.9520000000000017
sI915
F5.3632000000000009
sI916
F3.8416000000000001
sI917
F3.8416000000000001
sI918
F8.0122880000000016
sI919
F7.7225600000000014
sI920
F8.8122880000000006
sI921
F8.0122880000000016
sI922
F11.953600000000003
sI923
F6.4847999999999999
sI924
F8.9472000000000005
sI925
F8.0122880000000016
sI926
F8.0122880000000016
sI927
F8.0122880000000016
sI928
F8.0122879999999999
sI929
F3.8160000000000007
sI930
F11.896000000000006
sI931
F5.5465600000000004
sI932
F17.657600000000009
sI933
F17.657600000000009
sI934
F10.766848000000003
sI935
F12.521280000000004
sI936
F11.765248000000003
sI937
F14.185280000000006
sI938
F9.6512000000000029
sI939
F9.6512000000000029
sI940
F11.435520000000002
sI941
F12.907200000000003
sI942
F6.6998400000000027
sI943
F9.7254400000000008
sI944
F6.8160000000000007
sI945
F3.04
sI946
F2.9199999999999999
sI947
F6.8560000000000016
sI948
F3.4320000000000004
sI949
F8.0080000000000009
sI950
F14.832960000000002
sI951
F8.6959999999999997
sI952
F7.1440000000000001
sI953
F7.6880000000000006
sI954
F2.9199999999999999
sI955
F3.5200000000000005
sI956
F9.940800000000003
sI957
F10.555558400000001
sI958
F11.944448000000003
sI959
F16.057088000000004
sI960
F9.6919680000000028
sI961
F8.7632000000000012
sI962
F12.386560000000001
sI963
F5.4761600000000019
sI964
F6.4848000000000017
sI965
F7.1452800000000005
sI966
F10.945280000000004
sI967
F16.057088000000004
sI968
F7.1598720000000018
sI969
F8.7380480000000027
sI970
F2.952
sI971
F3.552
sI972
F3.5520000000000005
sI973
F9.1865600000000018
sI974
F3.689280000000001
sI975
F5.3632000000000009
sI976
F5.4016000000000002
sI977
F3.3616000000000001
sI978
F10.373888000000001
sI979
F6.087078400000002
sI980
F7.1512192000000017
sI981
F7.6890240000000016
sI982
F7.9427200000000022
sI983
F7.4639999999999995
sI984
F5.5360000000000005
sI985
F3.7520000000000007
sI986
F13.593958400000004
sI987
F13.392448000000005
sI988
F13.032448000000004
sI989
F9.0519680000000022
sI990
F16.809318400000006
sI991
F14.949478400000004
sI992
F11.888448000000006
sI993
F16.809318400000006
sI994
F11.888448000000006
sI995
F17.35715840000001
sI996
F14.926848000000007
sI997
F12.025958400000002
sI998
F12.691520000000006
sI999
F5.3809280000000008
sI1000
F4.8000000000000007
sI1001
F4.3200000000000003
sI1002
F10.669888000000002
sI1003
F12.087360000000004
sI1004
F10.669888
sI1005
F2.9520000000000004
sI1006
F8.4889600000000023
sI1007
F8.2729600000000012
sI1008
F5.3809280000000008
sI1009
F8.9705600000000025
sI1010
F7.875840000000002
sI1011
F10.020160000000002
sI1012
F9.7775104000000024
sI1013
F10.221888000000002
sI1014
F10.333542400000002
sI1015
F7.1512192000000017
sI1016
F4.9936000000000007
sI1017
F4.3600000000000003
sI1018
F9.8432000000000031
sI1019
F6.6998400000000018
sI1020
F6.6998400000000018
sI1021
F6.3598720000000011
sI1022
F6.3598720000000011
sI1023
F8.0080000000000009
sI1024
F8.6080000000000023
sI1025
F8.9680000000000017
sI1026
F8.6080000000000005
sI1027
F8.6080000000000005
sI1028
F2.9199999999999999
sI1029
F6.9951999999999988
sI1030
F10.968000000000004
sI1031
F3.3360000000000003
sI1032
F6.2160000000000011
sI1033
F12.446400000000006
sI1034
F8.6105600000000013
sI1035
F8.9884800000000027
sI1036
F5.8239999999999998
sI1037
F10.939200000000003
sI1038
F3.8160000000000007
sI1039
F4.0528000000000013
sI1040
F2.952
sI1041
F6.0752000000000024
sI1042
F5.8601600000000023
sI1043
F6.0751999999999997
sI1044
F8.2880000000000003
sI1045
F2.9199999999999999
sI1046
F7.6880000000000006
sI1047
F5.1280000000000001
sI1048
F9.088000000000001
sI1049
F8.3612800000000007
sI1050
F4.8361600000000005
sI1051
F4.7952000000000004
sI1052
F11.303680000000004
sI1053
F10.300160000000002
sI1054
F8.8409600000000026
sI1055
F8.0727679999999999
sI1056
F6.7305600000000023
sI1057
F5.1600000000000001
sI1058
F5.1280000000000001
sI1059
F6.2399999999999993
sI1060
F5.9920000000000009
sI1061
F5.9920000000000009
sI1062
F12.538560000000002
sI1063
F2.952
sI1064
F7.7596800000000012
sI1065
F7.0742144000000016
sI1066
F7.5927680000000013
sI1067
F10.976000000000003
sI1068
F4.0528000000000004
sI1069
F2.952
sI1070
F11.985267200000001
sI1071
F13.731584000000003
sI1072
F12.190579200000002
sI1073
F7.5927680000000004
sI1074
F10.388224000000001
sI1075
F7.5927680000000004
sI1076
F8.2409600000000012
sI1077
F7.0742144000000016
sI1078
F7.0742144000000025
sI1079
F7.0742144000000025
sI1080
F9.3133440000000025
sI1081
F10.9100032
sI1082
F10.566400000000002
sI1083
F7.7596800000000012
sI1084
F7.1512192000000017
sI1085
F7.1512192000000017
sI1086
F7.1512192000000026
sI1087
F6.2736000000000001
sI1088
F6.0188800000000011
sI1089
F6.0188800000000011
sI1090
F6.0188800000000011
sI1091
F4.4880000000000004
sI1092
F4.3600000000000003
sI1093
F11.795200000000003
sI1094
F6.6012800000000009
sI1095
F7.458214400000001
sI1096
F7.4582144000000019
sI1097
F5.4720000000000013
sI1098
F2.952
sI1099
F5.2252800000000006
sI1100
F2.9520000000000004
sI1101
F8.4484633599999999
sI1102
F9.3105792000000047
sI1103
F15.632960000000002
sI1104
F6.2810240000000022
sI1105
F6.6012800000000009
sI1106
F11.836160000000003
sI1107
F11.836160000000003
sI1108
F6.2399999999999993
sI1109
F5.2560000000000002
sI1110
F6.0752000000000006
sI1111
F6.4847999999999999
sI1112
F5.6144000000000007
sI1113
F9.5529600000000023
sI1114
F6.1776
sI1115
F12.538560000000002
sI1116
F6.0752000000000006
sI1117
F11.342400000000003
sI1118
F9.5529600000000041
sI1119
F6.0752000000000006
sI1120
F2.4400000000000004
sI1121
F1.8
sI1122
F6.0035200000000017
sI1123
F4.3600000000000003
sI1124
F1.8
sI1125
F3.52
sI1126
F2.3999999999999999
sI1127
F2.9199999999999999
sI1128
F2.9199999999999999
sI1129
F3.3360000000000003
sI1130
F3.3360000000000003
sI1131
F3.6688000000000005
sI1132
F3.6688000000000005
sI1133
F3.6688000000000005
sI1134
F7.3892480000000011
sI1135
F3.3360000000000003
sI1136
F3.6688000000000005
sI1137
F3.6688000000000005
sI1138
F3.9350400000000008
sI1139
F3.9350400000000008
sI1140
F3.9350400000000008
sI1141
F3.3360000000000003
sI1142
F3.3360000000000003
sI1143
F3.3360000000000003
sI1144
F2.9199999999999999
sI1145
F2.9199999999999999
sI1146
F6.2275200000000002
sI1147
F6.5344000000000015
sI1148
F8.2409600000000012
sI1149
F8.2409600000000012
sI1150
F4.5327999999999999
sI1151
F8.9177600000000012
sI1152
F11.795200000000001
sI1153
F8.449600000000002
sI1154
F6.0752000000000006
sI1155
F6.2159999999999993
sI1156
F6.2159999999999993
sI1157
F6.4847999999999999
sI1158
F6.4847999999999999
sI1159
F2.952
sI1160
F9.8320000000000025
sI1161
F6.359872000000002
sI1162
F6.3598720000000011
sI1163
F6.359872000000002
sI1164
F6.359872000000002
sI1165
F6.359872000000002
sI1166
F6.3598720000000011
sI1167
F12.964160000000003
sI1168
F11.385600000000002
sI1169
F13.690560000000003
sI1170
F6.8944000000000001
sI1171
F5.8192000000000021
sI1172
F6.0240000000000009
sI1173
F9.1062400000000014
sI1174
F5.6704000000000008
sI1175
F4.8719999999999999
sI1176
F10.406400000000003
sI1177
F4.3600000000000003
sI1178
F10.406400000000003
sI1179
F9.714240000000002
sI1180
F3.5200000000000005
sI1181
F3.8800000000000003
sI1182
F6.5488
sI1183
F7.7712000000000003
sI1184
F6.6998400000000009
sI1185
F6.3598720000000011
sI1186
F5.6592000000000011
sI1187
F11.616000000000003
sI1188
F12.520000000000005
sI1189
F8.5097231360000016
sI1190
F9.3871539200000012
sI1191
F7.1248000000000005
sI1192
F7.7225600000000023
sI1193
F9.2764800000000029
sI1194
F8.1649280000000033
sI1195
F5.5363200000000008
sI1196
F3.8799999999999999
sI1197
F3.8799999999999999
sI1198
F5.5363200000000008
sI1199
F7.4112
sI1200
F2.9199999999999999
sI1201
F6.2159999999999993
sI1202
F10.713600000000005
sI1203
F9.3337600000000016
sI1204
F10.713600000000005
sI1205
F13.471040000000004
sI1206
F12.861888000000002
sI1207
F13.471040000000004
sI1208
F5.2560000000000002
sI1209
F5.2560000000000002
sI1210
F5.8559999999999999
sI1211
F6.6998400000000009
sI1212
F8.4889600000000023
sI1213
F8.2729600000000012
sI1214
F3.9359999999999999
sI1215
F2.952
sI1216
F3.7520000000000007
sI1217
F11.136768000000002
sI1218
F6.0752000000000006
sI1219
F6.6448000000000018
sI1220
F10.336000000000004
sI1221
F4.5327999999999999
sI1222
F9.2688000000000024
sI1223
F9.2688000000000041
sI1224
F10.709760000000005
sI1225
F10.709760000000005
sI1226
F10.709760000000005
sI1227
F12.830732800000002
sI1228
F12.830732800000002
sI1229
F17.672000000000008
sI1230
F9.8752000000000049
sI1231
F16.837120000000002
sI1232
F16.153600000000001
sI1233
F16.837120000000006
sI1234
F15.865600000000006
sI1235
F3.8159999999999998
sI1236
F4.0528000000000013
sI1237
F3.8159999999999998
sI1238
F8.8832000000000022
sI1239
F2.4400000000000004
sI1240
F8.1065600000000035
sI1241
F9.2432000000000034
sI1242
F15.760960000000004
sI1243
F19.791872000000005
sI1244
F8.9945599999999999
sI1245
F20.281920000000014
sI1246
F22.348800000000011
sI1247
F16.969318400000006
sI1248
F12.516160000000003
sI1249
F8.3945600000000038
sI1250
F8.394560000000002
sI1251
F15.368768000000003
sI1252
F18.479680000000009
sI1253
F15.509568000000003
sI1254
F8.1649280000000033
sI1255
F14.329958400000004
sI1256
F19.443968000000012
sI1257
F14.638400000000004
sI1258
F9.0649600000000028
sI1259
F8.1649280000000033
sI1260
F7.5319424000000019
sI1261
F10.911808000000004
sI1262
F12.213760000000004
sI1263
F3.3360000000000003
sI1264
F14.493760000000004
sI1265
F12.573760000000005
sI1266
F7.7596800000000012
sI1267
F4.3600000000000003
sI1268
F4.3600000000000003
sI1269
F16.680000000000003
sI1270
F3.3360000000000003
sI1271
F2.9199999999999999
sI1272
F5.984
sI1273
F6.50528
sI1274
F2.9199999999999999
sI1275
F6.6752000000000002
sI1276
F5.7279999999999998
sI1277
F4.4559999999999995
sI1278
F10.799680000000002
sI1279
F4.3088000000000006
sI1280
F4.136000000000001
sI1281
F4.9088000000000003
sI1282
F3.3360000000000003
sI1283
F6.016
sI1284
F5.0704000000000011
sI1285
F5.088000000000001
sI1286
F4.2422400000000007
sI1287
F4.2422400000000007
sI1288
F10.730560000000002
sI1289
F11.530560000000003
sI1290
F5.3942400000000008
sI1291
F8.3241600000000009
sI1292
F7.9129600000000018
sI1293
F2.9199999999999999
sI1294
F10.976000000000001
sI1295
F11.311360000000004
sI1296
F13.032448000000004
sI1297
F8.1649280000000033
sI1298
F13.032448000000004
sI1299
F13.032448000000004
sI1300
F8.9719423999999997
sI1301
F12.025958400000002
sI1302
F7.5319424000000019
sI1303
F14.343966720000004
sI1304
F8.9775539200000036
sI1305
F11.82976
sI1306
F11.027200000000001
sI1307
F5.6959999999999997
sI1308
F5.5568000000000008
sI1309
F4.7952000000000004
sI1310
F9.9673600000000047
sI1311
F10.684160000000002
sI1312
F4.8361600000000005
sI1313
F4.7952000000000004
sI1314
F11.352640000000001
sI1315
F4.8361600000000013
sI1316
F4.8361600000000013
sI1317
F4.8361600000000013
sI1318
F8.2409600000000029
sI1319
F9.6567680000000031
sI1320
F9.0567680000000017
sI1321
F9.6567680000000031
sI1322
F7.2976000000000001
sI1323
F5.3809280000000017
sI1324
F8.2678400000000032
sI1325
F12.527360000000005
sI1326
F10.414144000000002
sI1327
F8.2409600000000012
sI1328
F12.162624000000003
sI1329
F10.976000000000003
sI1330
F6.0752000000000006
sI1331
F7.1235200000000019
sI1332
F8.0727680000000017
sI1333
F8.0727680000000017
sI1334
F8.8409600000000008
sI1335
F8.2409600000000029
sI1336
F11.970304000000002
sI1337
F5.1600000000000001
sI1338
F7.04
sI1339
F7.3999999999999995
sI1340
F7.3999999999999995
sI1341
F7.7596800000000012
sI1342
F9.0869888000000003
sI1343
F8.8409600000000008
sI1344
F6.0752000000000006
sI1345
F5.8601600000000023
sI1346
F5.8601600000000023
sI1347
F9.901568000000001
sI1348
F10.376960000000002
sI1349
F10.701568000000002
sI1350
F12.620800000000004
sI1351
F3.7520000000000007
sI1352
F2.952
sI1353
F7.4000000000000012
sI1354
F5.2560000000000002
sI1355
F13.538816000000002
sI1356
F7.4319999999999995
sI1357
F10.608640000000003
sI1358
F10.976000000000001
sI1359
F2.952
sI1360
F3.552
sI1361
F3.552
sI1362
F9.9113600000000037
sI1363
F10.345984000000001
sI1364
F7.2985600000000019
sI1365
F7.6585600000000014
sI1366
F6.8790400000000034
sI1367
F14.893056000000001
sI1368
F10.767360000000004
sI1369
F6.0752000000000024
sI1370
F9.9673600000000011
sI1371
F6.8388480000000005
sI1372
F6.0188800000000002
sI1373
F5.3809280000000008
sI1374
F5.3809280000000017
sI1375
F8.2519680000000015
sI1376
F5.2560000000000002
sI1377
F13.141760000000003
sI1378
F6.7305600000000023
sI1379
F6.3844480000000017
sI1380
F6.3844480000000026
sI1381
F6.3844480000000017
sI1382
F12.313958400000001
sI1383
F8.2519680000000015
sI1384
F10.407270400000003
sI1385
F11.009088000000004
sI1386
F2.4400000000000004
sI1387
F8.2519680000000015
sI1388
F12.313958400000001
sI1389
F10.407270400000002
sI1390
F5.4761600000000019
sI1391
F9.0240000000000009
sI1392
F8.143360000000003
sI1393
F7.2272000000000007
sI1394
F11.432960000000003
sI1395
F3.3360000000000003
sI1396
F13.999360000000005
sI1397
F17.051200000000005
sI1398
F14.255360000000005
sI1399
F14.771520000000004
sI1400
F12.405760000000004
sI1401
F8.2832000000000026
sI1402
F14.256960000000005
sI1403
F13.858560000000002
sI1404
F6.0752000000000006
sI1405
F7.0742144000000016
sI1406
F3.7199999999999998
sI1407
F5.8000000000000007
sI1408
F7.6560000000000006
sI1409
F7.4128000000000016
sI1410
F7.4128000000000025
sI1411
F7.4368000000000025
sI1412
F9.4208000000000016
sI1413
F6.4528000000000016
sI1414
F9.4208000000000016
sI1415
F7.7520000000000007
sI1416
F7.7520000000000007
sI1417
F8.2048000000000041
sI1418
F7.6560000000000006
sI1419
F8.2048000000000023
sI1420
F8.2048000000000023
sI1421
F8.2048000000000023
sI1422
F3.689280000000001
sI1423
F6.0752000000000006
sI1424
F6.0752000000000006
sI1425
F8.3919999999999995
sI1426
F3.3360000000000003
sI1427
F2.9199999999999999
sI1428
F5.7279999999999998
sI1429
F5.7280000000000015
sI1430
F9.9200000000000017
sI1431
F9.9200000000000017
sI1432
F8.4096000000000011
sI1433
F9.661760000000001
sI1434
F8.0080000000000009
sI1435
F7.4064000000000005
sI1436
F7.4064000000000014
sI1437
F11.970304000000002
sI1438
F10.731264000000001
sI1439
F12.693760000000005
sI1440
F14.543360000000005
sI1441
F12.102399999999999
sI1442
F12.195648000000006
sI1443
F14.147648000000004
sI1444
F13.3504
sI1445
F15.712000000000002
sI1446
F14.088448000000005
sI1447
F16.040448000000005
sI1448
F12.386560000000001
sI1449
F13.378560000000004
sI1450
F14.626560000000005
sI1451
F14.383360000000001
sI1452
F4.8720000000000008
sI1453
F2.952
sI1454
F12.324160000000003
sI1455
F14.173760000000003
sI1456
F12.043008000000002
sI1457
F14.322688000000005
sI1458
F13.291008000000003
sI1459
F15.570688000000004
sI1460
F14.161408000000005
sI1461
F16.785152000000007
sI1462
F15.159808000000005
sI1463
F17.783552000000011
sI1464
F7.5392000000000028
sI1465
F8.7487999999999992
sI1466
F9.3648000000000025
sI1467
F7.6560000000000006
sI1468
F5.2560000000000002
sI1469
F5.2048000000000005
sI1470
F6.5820800000000013
sI1471
F10.454784000000004
sI1472
F6.2656640000000019
sI1473
F7.2784000000000031
sI1474
F8.2409600000000012
sI1475
F8.2409600000000012
sI1476
F8.2409600000000029
sI1477
F4.9600000000000009
sI1478
F2.4400000000000004
sI1479
F4.7439999999999998
sI1480
F5.4761600000000019
sI1481
F7.4842240000000002
sI1482
F6.9873792000000012
sI1483
F6.9873792000000012
sI1484
F6.9873792000000012
sI1485
F5.2560000000000002
sI1486
F8.2409600000000012
sI1487
F10.709056
sI1488
F10.741824000000003
sI1489
F4.8361600000000005
sI1490
F8.4889600000000023
sI1491
F5.2560000000000002
sI1492
F9.2892800000000015
sI1493
F6.0035200000000017
sI1494
F6.0035200000000017
sI1495
F5.8028160000000009
sI1496
F6.0035200000000009
sI1497
F5.8028160000000009
sI1498
F6.0035200000000009
sI1499
F6.0035200000000009
sI1500
F5.476160000000001
sI1501
F5.3809280000000008
sI1502
F5.3809280000000008
sI1503
F5.3809280000000008
sI1504
F7.4582144000000019
sI1505
F7.4582144000000019
sI1506
F7.4582144000000019
sI1507
F7.4582144000000019
sI1508
F7.4582144000000019
sI1509
F7.4582144000000019
sI1510
F7.4582144000000019
sI1511
F7.4582144000000019
sI1512
F7.4582144000000019
sI1513
F7.4582144000000019
sI1514
F7.4582144000000019
sI1515
F7.4582144000000019
sI1516
F7.4582144000000019
sI1517
F7.4582144000000019
sI1518
F7.4582144000000019
sI1519
F8.2409600000000012
sI1520
F11.919680000000003
sI1521
F15.713600000000003
sI1522
F8.6505600000000005
sI1523
F10.232000000000003
sI1524
F4.5289600000000014
sI1525
F4.4112000000000009
sI1526
F4.4112000000000009
sI1527
F6.7776640000000015
sI1528
F7.2220800000000001
sI1529
F9.3209600000000012
sI1530
F8.2409600000000012
sI1531
F6.2080000000000002
sI1532
F3.3360000000000003
sI1533
F6.0400000000000009
sI1534
F4.3600000000000003
sI1535
F8.2409600000000012
sI1536
F8.4096000000000029
sI1537
F8.4096000000000011
sI1538
F8.4095999999999993
sI1539
F9.7564800000000034
sI1540
F6.1776000000000009
sI1541
F8.1449600000000011
sI1542
F8.1449600000000011
sI1543
F7.7849600000000017
sI1544
F9.9369600000000027
sI1545
F5.2160000000000002
sI1546
F7.2794240000000014
sI1547
F9.495040000000003
sI1548
F2.4400000000000004
sI1549
F1.8
sI1550
F11.083200000000003
sI1551
F10.696000000000005
sI1552
F11.934720000000002
sI1553
F12.256000000000004
sI1554
F9.0688000000000031
sI1555
F11.454720000000002
sI1556
F11.776000000000003
sI1557
F8.5888000000000027
sI1558
F11.677632000000001
sI1559
F12.424000000000003
sI1560
F9.2368000000000023
sI1561
F11.677632000000001
sI1562
F12.424000000000003
sI1563
F9.2368000000000023
sI1564
F11.965632000000001
sI1565
F12.712000000000003
sI1566
F9.5248000000000026
sI1567
F11.965632000000001
sI1568
F12.712000000000003
sI1569
F9.5248000000000026
sI1570
F8.9214080000000013
sI1571
F9.6617600000000028
sI1572
F13.221376000000005
sI1573
F4.6262400000000001
sI1574
F8.4889600000000023
sI1575
F16.019200000000005
sI1576
F7.7952000000000012
sI1577
F6.0752000000000024
sI1578
F2.952
sI1579
F15.058688000000005
sI1580
F9.4336000000000038
sI1581
F11.785280000000004
sI1582
F10.845248000000003
sI1583
F13.449280000000003
sI1584
F11.054848000000003
sI1585
F11.054848000000002
sI1586
F8.4032
sI1587
F9.9625600000000034
sI1588
F9.8618880000000022
sI1589
F9.8618880000000022
sI1590
F9.015718399999999
sI1591
F5.1280000000000001
sI1592
F5.1280000000000001
sI1593
F3.3360000000000007
sI1594
F20.411200000000015
sI1595
F5.5952000000000011
sI1596
F3.8160000000000007
sI1597
F5.5952000000000011
sI1598
F6.7465344000000025
sI1599
F9.2009600000000038
sI1600
F14.656768000000007
sI1601
F1.8
sI1602
F11.463168000000001
sI1603
F10.543168000000001
sI1604
F4.5327999999999999
sI1605
F17.011200000000009
sI1606
F11.311360000000002
sI1607
F5.5360000000000005
sI1608
F3.7200000000000006
sI1609
F6.6998400000000027
sI1610
F10.976000000000001
sI1611
F7.025553920000001
sI1612
F7.1248000000000005
sI1613
F8.4506752000000027
sI1614
F11.772672000000002
sI1615
F4.8361600000000013
sI1616
F8.4506752000000027
sI1617
F5.2560000000000002
sI1618
F8.7721600000000031
sI1619
F7.1248000000000005
sI1620
F3.3360000000000003
sI1621
F6.4847999999999999
sI1622
F8.2409600000000012
sI1623
F13.367360000000003
sI1624
F9.0496000000000016
sI1625
F2.9199999999999999
sI1626
F12.313958400000001
sI1627
F8.0727679999999999
sI1628
F6.1776
sI1629
F10.146368000000002
sI1630
F10.146368000000002
sI1631
F5.0960000000000001
sI1632
F3.5200000000000005
sI1633
F12.705280000000002
sI1634
F7.298560000000001
sI1635
F7.9350400000000034
sI1636
F7.9350400000000025
sI1637
F9.4028800000000015
sI1638
F6.8388480000000014
sI1639
F7.3480320000000008
sI1640
F7.3480320000000017
sI1641
F7.3480320000000017
sI1642
F9.4216320000000024
sI1643
F12.702463999999999
sI1644
F9.4216320000000007
sI1645
F8.2480640000000012
sI1646
F2.9199999999999999
sI1647
F10.321664
sI1648
F7.9350400000000025
sI1649
F13.862464000000003
sI1650
F11.985664000000002
sI1651
F7.9350400000000025
sI1652
F13.862464000000003
sI1653
F6.4080000000000013
sI1654
F9.5734400000000033
sI1655
F11.985267200000001
sI1656
F2.4400000000000004
sI1657
F2.4400000000000004
sI1658
F11.342400000000003
sI1659
F10.976960000000004
sI1660
F12.144640000000003
sI1661
F11.816960000000002
sI1662
F5.2560000000000002
sI1663
F6.0560000000000009
sI1664
F9.6592000000000056
sI1665
F9.6592000000000038
sI1666
F4.3599999999999994
sI1667
F9.6592000000000038
sI1668
F9.6592000000000038
sI1669
F4.6231680000000006
sI1670
F7.4064000000000032
sI1671
F8.0080000000000009
sI1672
F11.926848000000005
sI1673
F8.5120000000000005
sI1674
F5.4761600000000019
sI1675
F7.1232000000000024
sI1676
F4.4159999999999995
sI1677
F10.730560000000002
sI1678
F7.7596800000000012
sI1679
F6.0752000000000006
sI1680
F13.824768000000006
sI1681
F3.689280000000001
sI1682
F7.2220800000000009
sI1683
F16.090368000000005
sI1684
F5.2560000000000002
sI1685
F9.4761600000000019
sI1686
F8.0105600000000017
sI1687
F8.2409600000000029
sI1688
F13.032448000000004
sI1689
F8.1649280000000033
sI1690
F5.2800000000000002
sI1691
F3.9760000000000004
sI1692
F11.504448000000005
sI1693
F8.6480000000000015
sI1694
F10.443878400000003
sI1695
F9.6134784000000018
sI1696
F9.9200000000000017
sI1697
F13.920000000000005
sI1698
F9.8217600000000012
sI1699
F11.47776
sI1700
F6.7600000000000016
sI1701
F8.2519680000000015
sI1702
F4.3599999999999994
sI1703
F7.615672832000004
sI1704
F8.2695910400000034
sI1705
F8.4506752000000009
sI1706
F5.2560000000000002
sI1707
F12.379904000000002
sI1708
F2.9520000000000004
sI1709
F8.2409600000000012
sI1710
F7.6496000000000013
sI1711
F5.7280000000000015
sI1712
F4.7359999999999998
sI1713
F6.120000000000001
sI1714
F8.4432000000000009
sI1715
F20.135360000000009
sI1716
F15.364160000000005
sI1717
F7.297600000000001
sI1718
F5.1600000000000001
sI1719
F15.548160000000003
sI1720
F14.352960000000005
sI1721
F11.342400000000003
sI1722
F2.4400000000000004
sI1723
F2.4400000000000004
sI1724
F5.2560000000000002
sI1725
F8.0080000000000009
sI1726
F7.4064000000000014
sI1727
F7.4064000000000005
sI1728
F7.4064000000000005
sI1729
F7.4064000000000023
sI1730
F8.9321600000000032
sI1731
F2.9520000000000004
sI1732
F8.0064000000000011
sI1733
F4.5327999999999999
sI1734
F5.1280000000000001
sI1735
F7.0400000000000018
sI1736
F8.6505600000000022
sI1737
F8.6505600000000022
sI1738
F8.6505600000000022
sI1739
F8.6505600000000022
sI1740
F8.6505600000000022
sI1741
F9.691968000000001
sI1742
F9.4336000000000038
sI1743
F10.845248000000003
sI1744
F11.785280000000002
sI1745
F5.4761600000000019
sI1746
F9.0869888000000003
sI1747
F10.108736000000002
sI1748
F5.7279999999999998
sI1749
F10.643200000000004
sI1750
F4.3600000000000003
sI1751
F6.9913600000000002
sI1752
F5.659200000000002
sI1753
F5.476160000000001
sI1754
F9.0240000000000009
sI1755
F8.1649280000000033
sI1756
F10.649088000000003
sI1757
F10.944000000000003
sI1758
F9.433600000000002
sI1759
F10.845248000000002
sI1760
F10.538048000000002
sI1761
F11.357248000000004
sI1762
F9.8432000000000031
sI1763
F8.1649280000000015
sI1764
F13.032448000000004
sI1765
F9.3071999999999999
sI1766
F14.112448000000004
sI1767
F7.5319424000000019
sI1768
F9.6000000000000014
sI1769
F3.9760000000000004
sI1770
F8.6505600000000022
sI1771
F7.1232000000000024
sI1772
F17.964800000000007
sI1773
F17.384960000000007
sI1774
F17.964800000000007
sI1775
F5.7600000000000007
sI1776
F5.7600000000000007
sI1777
F5.9420800000000007
sI1778
F2.952
sI1779
F8.2409600000000012
sI1780
F9.4288000000000007
sI1781
F6.0752000000000006
sI1782
F7.0925382656000036
sI1783
F5.2560000000000002
sI1784
F5.2048000000000005
sI1785
F9.5529600000000023
sI1786
F6.1568000000000005
sI1787
F6.1568000000000005
sI1788
F6.1568000000000005
sI1789
F14.091376640000005
sI1790
F8.0080000000000009
sI1791
F17.936960000000006
sI1792
F3.3616000000000001
sI1793
F9.2764800000000012
sI1794
F5.8601600000000023
sI1795
F6.0905600000000018
sI1796
F6.3632
sI1797
F7.7596800000000012
sI1798
F7.9427200000000022
sI1799
F12.179200000000002
sI1800
F10.559360000000003
sI1801
F6.7465344000000025
sI1802
F10.890304000000002
sI1803
F8.6423680000000012
sI1804
F8.0080000000000009
sI1805
F8.4096000000000011
sI1806
F5.2560000000000002
sI1807
F5.2560000000000002
sI1808
F6.7305600000000023
sI1809
F8.2409600000000012
sI1810
F5.2560000000000002
sI1811
F8.6096000000000021
sI1812
F2.3999999999999999
sI1813
F4.032
sI1814
F3.9360000000000004
sI1815
F5.8192000000000004
sI1816
F4.4880000000000004
sI1817
F5.0704000000000002
sI1818
F5.0563200000000004
sI1819
F6.9763199999999994
sI1820
F6.9763199999999994
sI1821
F6.5810560000000011
sI1822
F6.2648448000000014
sI1823
F10.667840000000002
sI1824
F8.7232000000000021
sI1825
F8.1649280000000015
sI1826
F11.985267199999999
sI1827
F9.2892800000000015
sI1828
F3.5200000000000005
sI1829
F9.7920000000000051
sI1830
F14.332160000000005
sI1831
F9.6064000000000025
sI1832
F8.0122879999999999
sI1833
F8.2409600000000029
sI1834
F10.331200000000003
sI1835
F6.0752000000000006
sI1836
F5.8601600000000023
sI1837
F5.8601600000000023
sI1838
F13.680960000000002
sI1839
F11.324160000000003
sI1840
F2.952
sI1841
F12.840960000000003
sI1842
F6.0752000000000006
sI1843
F6.7356800000000021
sI1844
F7.1696000000000009
sI1845
F6.7356800000000021
sI1846
F5.8256000000000014
sI1847
F6.0752000000000006
sI1848
F4.96
sI1849
F4.974400000000001
sI1850
F4.968
sI1851
F4.974400000000001
sI1852
F4.9744000000000002
sI1853
F4.968
sI1854
F4.968
sI1855
F4.974400000000001
sI1856
F4.968
sI1857
F4.974400000000001
sI1858
F4.974400000000001
sI1859
F11.468544000000005
sI1860
F6.6998400000000009
sI1861
F10.649088000000004
sI1862
F9.573888000000002
sI1863
F13.800960000000005
sI1864
F9.4336000000000038
sI1865
F10.845248000000003
sI1866
F8.9472000000000023
sI1867
F15.080960000000006
sI1868
F9.495040000000003
sI1869
F10.004544000000001
sI1870
F11.468544000000003
sI1871
F11.468544000000003
sI1872
F2.952
sI1873
F10.407270400000002
sI1874
F8.2519680000000015
sI1875
F10.649088000000003
sI1876
F9.8991103999999996
sI1877
F10.572288000000002
sI1878
F9.7920000000000034
sI1879
F7.1248000000000005
sI1880
F11.129088000000003
sI1881
F8.7193600000000018
sI1882
F9.7391104000000031
sI1883
F6.9588480000000015
sI1884
F6.9588480000000015
sI1885
F7.0070400000000017
sI1886
F8.659200000000002
sI1887
F6.5600000000000014
sI1888
F13.901120000000004
sI1889
F5.7680000000000016
sI1890
F5.2560000000000002
sI1891
F8.0080000000000009
sI1892
F9.5529600000000041
sI1893
F9.5529600000000041
sI1894
F10.651200000000005
sI1895
F10.651200000000005
sI1896
F10.651200000000005
sI1897
F10.651200000000006
sI1898
F10.651200000000005
sI1899
F8.0080000000000009
sI1900
F10.651200000000005
sI1901
F10.651200000000005
sI1902
F10.651200000000005
sI1903
F10.651200000000005
sI1904
F10.651200000000003
sI1905
F10.651200000000003
sI1906
F10.651200000000003
sI1907
F10.651200000000003
sI1908
F10.651200000000003
sI1909
F10.651200000000003
sI1910
F10.651200000000003
sI1911
F10.651200000000003
sI1912
F10.651200000000003
sI1913
F10.651200000000003
sI1914
F10.651200000000003
sI1915
F10.651200000000003
sI1916
F10.651200000000003
sI1917
F10.651200000000003
sI1918
F8.2409600000000012
sI1919
F7.3101440000000011
sI1920
F7.2220800000000001
sI1921
F6.0752000000000006
sI1922
F5.2560000000000002
sI1923
F5.2560000000000002
sI1924
F5.2560000000000011
sI1925
F6.0752000000000006
sI1926
F5.8601600000000023
sI1927
F5.8601600000000023
sI1928
F7.2077440000000026
sI1929
F7.2077440000000026
sI1930
F8.3596800000000009
sI1931
F8.3596800000000027
sI1932
F12.837632000000005
sI1933
F6.0752000000000006
sI1934
F6.6752000000000002
sI1935
F6.6752000000000002
sI1936
F6.6752000000000002
sI1937
F6.675200000000002
sI1938
F6.0752000000000006
sI1939
F6.0752000000000006
sI1940
F6.0752000000000006
sI1941
F5.7680000000000007
sI1942
F7.918400000000001
sI1943
F9.7216000000000005
sI1944
F9.861888000000004
sI1945
F7.1798400000000022
sI1946
F13.731584000000003
sI1947
F6.0752000000000006
sI1948
F11.970304000000002
sI1949
F5.2560000000000002
sI1950
F8.2409600000000012
sI1951
F9.4288000000000007
sI1952
F9.4288000000000025
sI1953
F11.836160000000003
sI1954
F12.236147200000005
sI1955
F12.236147200000003
sI1956
F8.5225600000000021
sI1957
F10.664960000000004
sI1958
F9.9520000000000017
sI1959
F6.0752000000000006
sI1960
F9.9520000000000017
sI1961
F12.866368000000005
sI1962
F12.866368000000007
sI1963
F12.866368000000005
sI1964
F7.5200000000000014
sI1965
F7.2193024000000019
sI1966
F8.2409600000000012
sI1967
F7.0742144000000016
sI1968
F7.1512192000000017
sI1969
F6.7209753600000033
sI1970
F4.7952000000000004
sI1971
F11.123776000000001
sI1972
F11.953420800000004
sI1973
F8.4506752000000027
sI1974
F10.585920000000002
sI1975
F8.2409600000000029
sI1976
F4.3840000000000003
sI1977
F3.6688000000000005
sI1978
F4.3840000000000003
sI1979
F7.7596800000000012
sI1980
F3.3360000000000003
sI1981
F9.4736000000000011
sI1982
F9.0869888000000003
sI1983
F5.2560000000000002
sI1984
F3.6688000000000001
sI1985
F3.3360000000000003
sI1986
F7.1831680000000011
sI1987
F7.1831680000000011
sI1988
F11.805094400000002
sI1989
F9.032
sI1990
F9.032
sI1991
F6.0035200000000017
sI1992
F7.1512192000000017
sI1993
F5.1600000000000001
sI1994
F5.2048000000000005
sI1995
F8.1828479999999999
sI1996
F8.5225600000000021
sI1997
F7.539200000000001
sI1998
F13.117760000000004
sI1999
F16.768768000000009
sI2000
F11.797248000000003
sI2001
F12.495360000000002
sI2002
F12.616448000000005
sI2003
F13.505600000000005
sI2004
F12.016960000000003
sI2005
F15.620454400000003
sI2006
F7.5927680000000013
sI2007
F5.2048000000000005
sI2008
F5.2560000000000002
sI2009
F6.4848000000000017
sI2010
F17.21420800000001
sI2011
F10.613568000000003
sI2012
F15.221248000000006
sI2013
F12.313958400000001
sI2014
F8.2519680000000015
sI2015
F10.407270400000002
sI2016
F3.3360000000000007
sI2017
F4.4160000000000004
sI2018
F10.976000000000003
sI2019
F14.656768000000005
sI2020
F2.9520000000000004
sI2021
F5.9420800000000007
sI2022
F10.152960000000004
sI2023
F5.6592000000000011
sI2024
F3.3616000000000001
sI2025
F2.952
sI2026
F3.5200000000000005
sI2027
F2.9199999999999999
sI2028
F3.5200000000000005
sI2029
F7.3872000000000027
sI2030
F4.1487999999999996
sI2031
F10.263360000000004
sI2032
F11.579200000000004
sI2033
F3.8159999999999998
sI2034
F11.970304000000002
sI2035
F4.7760000000000007
sI2036
F3.6688000000000009
sI2037
F4.8208000000000002
sI2038
F4.8208000000000002
sI2039
F4.8566400000000014
sI2040
F7.7785600000000006
sI2041
F2.952
sI2042
F6.6985600000000014
sI2043
F8.0080000000000009
sI2044
F8.0080000000000009
sI2045
F8.0080000000000009
sI2046
F6.7392000000000012
sI2047
F8.3905024000000026
sI2048
F7.8065280000000028
sI2049
F7.7596800000000021
sI2050
F6.7465344000000025
sI2051
F5.3760000000000012
sI2052
F9.2876800000000017
sI2053
F8.2519680000000015
sI2054
F4.5327999999999999
sI2055
F11.785280000000004
sI2056
F13.449280000000005
sI2057
F10.543168000000003
sI2058
F9.131840000000004
sI2059
F14.178048000000008
sI2060
F13.061888000000007
sI2061
F10.053888000000004
sI2062
F3.6892800000000006
sI2063
F3.6892800000000006
sI2064
F3.6892800000000006
sI2065
F3.6892800000000006
sI2066
F3.6892800000000006
sI2067
F3.6892800000000006
sI2068
F3.6892800000000006
sI2069
F8.3472000000000008
sI2070
F5.9920000000000009
sI2071
F3.3616000000000001
sI2072
F5.3440000000000012
sI2073
F8.0105600000000017
sI2074
F10.571520000000001
sI2075
F3.3616000000000001
sI2076
F2.9199999999999999
sI2077
F5.7999999999999998
sI2078
F9.5854720000000011
sI2079
F12.005265920000003
sI2080
F12.005265920000003
sI2081
F11.220766720000004
sI2082
F3.3360000000000003
sI2083
F8.4096000000000011
sI2084
F10.345984000000001
sI2085
F3.3360000000000003
sI2086
F15.904768000000008
sI2087
F2.952
sI2088
F12.145600000000004
sI2089
F2.4400000000000004
sI2090
F4.9600000000000009
sI2091
F3.3616000000000001
sI2092
F12.222464000000002
sI2093
F8.1808000000000014
sI2094
F2.952
sI2095
F9.0960000000000019
sI2096
F10.156800000000002
sI2097
F6.2992000000000008
sI2098
F9.0869888000000003
sI2099
F8.2695910400000034
sI2100
F6.7305600000000023
sI2101
F7.7248000000000019
sI2102
F9.5743999999999989
sI2103
F8.9680000000000017
sI2104
F7.7248000000000019
sI2105
F9.4438400000000016
sI2106
F7.2016000000000027
sI2107
F6.6593715200000023
sI2108
F6.6593715200000023
sI2109
F8.1828480000000017
sI2110
F4.5327999999999999
sI2111
F7.7596800000000012
sI2112
F6.0752000000000006
sI2113
F13.392960000000002
sI2114
F9.7808000000000028
sI2115
F10.976000000000004
sI2116
F8.8246400000000005
sI2117
F8.8246400000000005
sI2118
F2.952
sI2119
F2.952
sI2120
F3.3616000000000001
sI2121
F9.0320000000000018
sI2122
F9.032
sI2123
F9.032
sI2124
F9.032
sI2125
F9.032
sI2126
F9.032
sI2127
F10.976000000000001
sI2128
F3.6688000000000001
sI2129
F3.6688000000000001
sI2130
F3.6688000000000001
sI2131
F3.6688000000000001
sI2132
F3.6688000000000001
sI2133
F3.6688000000000001
sI2134
F3.6688000000000001
sI2135
F3.6688000000000005
sI2136
F3.6688000000000005
sI2137
F4
sI2138
F4
sI2139
F4
sI2140
F3.6688000000000005
sI2141
F3.6688000000000005
sI2142
F3.6688000000000005
sI2143
F3.3360000000000003
sI2144
F3.8400000000000007
sI2145
F4.4880000000000004
sI2146
F2.952
sI2147
F5.6553600000000017
sI2148
F5.8192000000000021
sI2149
F6.2553600000000014
sI2150
F4.4880000000000004
sI2151
F4.4159999999999995
sI2152
F3.52
sI2153
F1.8
sI2154
F4.4880000000000004
sI2155
F7.014400000000002
sI2156
F6.5459200000000006
sI2157
F5.0450560000000007
sI2158
F6.6115200000000014
sI2159
F6.6115200000000014
sI2160
F6.6115200000000014
sI2161
F6.6115200000000014
sI2162
F6.2367360000000005
sI2163
F6.2367360000000005
sI2164
F10.976000000000001
sI2165
F9.032
sI2166
F8.2256000000000018
sI2167
F8.2256
sI2168
F8.0681600000000007
sI2169
F9.3133440000000007
sI2170
F7.1512192000000017
sI2171
F7.4582144000000019
sI2172
F8.1600000000000001
sI2173
F12.266560000000002
sI2174
F8.1649280000000033
sI2175
F2.952
sI2176
F5.2048000000000005
sI2177
F5.2048000000000005
sI2178
F5.2048000000000005
sI2179
F5.3776000000000019
sI2180
F5.3776000000000019
sI2181
F5.4720000000000013
sI2182
F6.359872000000002
sI2183
F12.313958400000002
sI2184
F5.2437939200000017
sI2185
F4.5328000000000017
sI2186
F8.2519680000000015
sI2187
F12.313958400000004
sI2188
F8.2519680000000015
sI2189
F3.8159999999999998
sI2190
F3.3360000000000003
sI2191
F2.9199999999999999
sI2192
F4.0528000000000013
sI2193
F7.4064000000000014
sI2194
F7.4064000000000014
sI2195
F13.751040000000005
sI2196
F6.0878976000000016
sI2197
F8.6727680000000014
sI2198
F8.6727680000000014
sI2199
F12.237248000000001
sI2200
F11.437248000000002
sI2201
F12.927232000000004
sI2202
F9.7254400000000008
sI2203
F11.357248000000002
sI2204
F17.99404800000001
sI2205
F5.4720000000000013
sI2206
F17.99404800000001
sI2207
F5.1328000000000014
sI2208
F4.5327999999999999
sI2209
F12.816960000000003
sI2210
F14.656768000000008
sI2211
F14.656768000000008
sI2212
F12.5796992
sI2213
F7.2336000000000009
sI2214
F6.5359999999999996
sI2215
F7.1248000000000005
sI2216
F4.4470400000000003
sI2217
F16.060160000000003
sI2218
F8.5337600000000027
sI2219
F6.359872000000002
sI2220
F15.548160000000003
sI2221
F14.633280000000003
sI2222
F10.969600000000002
sI2223
F2.9199999999999999
sI2224
F7.9129600000000018
sI2225
F5.3809280000000017
sI2226
F5.3047424000000012
sI2227
F5.3047424000000012
sI2228
F5.3047424000000012
sI2229
F4.3200000000000003
sI2230
F12.716800000000005
sI2231
F15.773696000000008
sI2232
F9.0227200000000032
sI2233
F4.2422400000000007
sI2234
F3.8159999999999998
sI2235
F3.52
sI2236
F5.3632
sI2237
F10.108736000000004
sI2238
F7.9359999999999999
sI2239
F6.1568000000000005
sI2240
F8.1471999999999998
sI2241
F6.4527999999999999
sI2242
F6.1568000000000005
sI2243
F4.3088000000000006
sI2244
F6.0560000000000009
sI2245
F6.9968000000000004
sI2246
F4.7759999999999998
sI2247
F3.5200000000000005
sI2248
F3.5200000000000005
sI2249
F3.8799999999999999
sI2250
F8.6835200000000015
sI2251
F11.160320000000002
sI2252
F3.8399999999999999
sI2253
F9.3133440000000007
sI2254
F2.9199999999999999
sI2255
F6.0878976000000016
sI2256
F6.4528000000000008
sI2257
F6.4528000000000016
sI2258
F6.4528000000000008
sI2259
F6.4528000000000008
sI2260
F6.4528000000000008
sI2261
F4.8976000000000006
sI2262
F4.8719999999999999
sI2263
F4.5327999999999999
sI2264
F6.0752000000000006
sI2265
F6.7305600000000005
sI2266
F14.161600000000004
sI2267
F10.976000000000001
sI2268
F4.3600000000000003
sI2269
F14.3854208
sI2270
F10.304768000000001
sI2271
F4.968
sI2272
F4.9600000000000009
sI2273
F4.9680000000000017
sI2274
F4.9600000000000009
sI2275
F4.9680000000000017
sI2276
F4.9680000000000009
sI2277
F4.9600000000000009
sI2278
F6.7776640000000015
sI2279
F9.5529600000000041
sI2280
F8.2678400000000014
sI2281
F13.680960000000002
sI2282
F8.2409600000000029
sI2283
F6.5065600000000021
sI2284
F4.2422400000000007
sI2285
F5.8432000000000013
sI2286
F5.8432000000000013
sI2287
F7.3856000000000019
sI2288
F5.8432000000000013
sI2289
F9.3385600000000029
sI2290
F12.176319999999999
sI2291
F11.096319999999999
sI2292
F14.269184000000003
sI2293
F6.0751999999999997
sI2294
F15.452736000000003
sI2295
F5.2048000000000005
sI2296
F5.2560000000000002
sI2297
F4.7999999999999998
sI2298
F2.9199999999999999
sI2299
F6.9763199999999994
sI2300
F7.5319424000000019
sI2301
F7.025553920000001
sI2302
F13.873408000000003
sI2303
F9.8746880000000008
sI2304
F6.581056000000002
sI2305
F7.3651199999999992
sI2306
F7.3651199999999992
sI2307
F2.9199999999999999
sI2308
F3.5200000000000005
sI2309
F3.8800000000000003
sI2310
F4.0960000000000001
sI2311
F3.8800000000000003
sI2312
F3.8800000000000003
sI2313
F3.8799999999999999
sI2314
F4.0960000000000001
sI2315
F4.0960000000000001
sI2316
F4.0960000000000001
sI2317
F2.9199999999999999
sI2318
F3.5200000000000005
sI2319
F5.2160000000000002
sI2320
F4.7632000000000012
sI2321
F4.3600000000000003
sI2322
F7.5319424000000019
sI2323
F7.531942400000001
sI2324
F7.531942400000001
sI2325
F7.531942400000001
sI2326
F6.5961600000000029
sI2327
F8.4567680000000003
sI2328
F7.1491200000000008
sI2329
F7.4111999999999991
sI2330
F7.4111999999999991
sI2331
F7.1491200000000008
sI2332
F8.2409600000000012
sI2333
F5.9420800000000007
sI2334
F5.1600000000000001
sI2335
F5.9520000000000008
sI2336
F6.2275200000000011
sI2337
F3.6688000000000009
sI2338
F2.9199999999999999
sI2339
F3.8160000000000007
sI2340
F5.9520000000000008
sI2341
F6.2592000000000008
sI2342
F4.4880000000000004
sI2343
F4.4880000000000004
sI2344
F5.5363200000000008
sI2345
F6.9763200000000012
sI2346
F9.5872000000000028
sI2347
F5.0563200000000004
sI2348
F5.5363200000000008
sI2349
F6.9763200000000012
sI2350
F7.0003200000000012
sI2351
F9.2656000000000009
sI2352
F6.5810560000000011
sI2353
F9.01248
sI2354
F6.5810560000000011
sI2355
F9.0124800000000018
sI2356
F6.9763200000000012
sI2357
F8.6656000000000013
sI2358
F6.9763200000000012
sI2359
F8.6656000000000013
sI2360
F4.5904000000000007
sI2361
F5.5363199999999999
sI2362
F8.401600000000002
sI2363
F6.5810560000000029
sI2364
F8.5324800000000014
sI2365
F5.5363199999999999
sI2366
F6.9763199999999994
sI2367
F8.6656000000000013
sI2368
F7.0003200000000012
sI2369
F8.6800000000000015
sI2370
F7.9440000000000017
sI2371
F9.3840000000000003
sI2372
F6.0878976000000016
sI2373
F8.5225600000000021
sI2374
F6.2275200000000011
sI2375
F7.9987200000000005
sI2376
F8.5763200000000008
sI2377
F7.8610559999999996
sI2378
F9.3010560000000009
sI2379
F8.7052800000000019
sI2380
F6.2275200000000011
sI2381
F6.0751999999999997
sI2382
F8.2127999999999997
sI2383
F3.6688000000000005
sI2384
F2.9199999999999999
sI2385
F6.0073600000000003
sI2386
F5.5363200000000008
sI2387
F4.4880000000000004
sI2388
F7.1248000000000005
sI2389
F7.1248000000000005
sI2390
F6.1568000000000005
sI2391
F5.5760000000000005
sI2392
F2.9199999999999999
sI2393
F5.5760000000000005
sI2394
F7.1248000000000005
sI2395
F4.4879999999999995
sI2396
F4.4879999999999995
sI2397
F7.2192000000000016
sI2398
F4.1487999999999996
sI2399
F4.2000000000000002
sI2400
F9.5504000000000016
sI2401
F11.136768000000002
sI2402
F9.9530880000000028
sI2403
F3.3616000000000001
sI2404
F5.0908800000000012
sI2405
F9.9530880000000028
sI2406
F7.7225600000000023
sI2407
F6.056
sI2408
F5.8448000000000011
sI2409
F7.3808000000000007
sI2410
F7.0928000000000022
sI2411
F5.8448000000000011
sI2412
F4.4470400000000003
sI2413
F4.4470400000000003
sI2414
F4.4470400000000003
sI2415
F4.4470400000000003
sI2416
F5.5568000000000008
sI2417
F6.1622400000000006
sI2418
F6.056
sI2419
F6.7408000000000001
sI2420
F8.1649280000000033
sI2421
F6.5488000000000008
sI2422
F7.1248000000000005
sI2423
F6.1622400000000006
sI2424
F4.3088000000000006
sI2425
F8.0105600000000017
sI2426
F6.6560000000000006
sI2427
F6.6560000000000006
sI2428
F7.1798400000000022
sI2429
F6.7438720000000014
sI2430
F6.7438720000000014
sI2431
F5.0563200000000004
sI2432
F5.9520000000000008
sI2433
F8.4294400000000014
sI2434
F3.3360000000000003
sI2435
F7.8876800000000022
sI2436
F4.4880000000000004
sI2437
F10.108736000000004
sI2438
F3.9514240000000007
sI2439
F3.9514240000000007
sI2440
F3.3616000000000001
sI2441
F9.4800000000000004
sI2442
F8.394560000000002
sI2443
F5.2560000000000002
sI2444
F13.141760000000003
sI2445
F13.141760000000003
sI2446
F13.141760000000003
sI2447
F13.141760000000003
sI2448
F13.141760000000003
sI2449
F4.1692800000000005
sI2450
F9.8990208000000024
sI2451
F9.8990208000000024
sI2452
F2.9520000000000004
sI2453
F3.689280000000001
sI2454
F3.689280000000001
sI2455
F2.952
sI2456
F2.952
sI2457
F2.952
sI2458
F4.9936000000000007
sI2459
F4.9936000000000007
sI2460
F5.9420800000000007
sI2461
F3.3616000000000006
sI2462
F7.4000000000000012
sI2463
F4.3600000000000003
sI2464
F8.0080000000000009
sI2465
F8.3905024000000026
sI2466
F7.8065280000000028
sI2467
F6.3598720000000011
sI2468
F8.311872000000001
sI2469
F7.3600000000000012
sI2470
F3.5520000000000005
sI2471
F6.6048
sI2472
F13.784000000000004
sI2473
F5.9280000000000008
sI2474
F2.952
sI2475
F2.952
sI2476
F8.1649280000000033
sI2477
F11.490560000000004
sI2478
F11.317760000000003
sI2479
F11.210560000000003
sI2480
F10.976000000000003
sI2481
F8.0727679999999999
sI2482
F8.0727680000000017
sI2483
F7.4582144000000019
sI2484
F4.5327999999999999
sI2485
F7.1248000000000005
sI2486
F2.9199999999999999
sI2487
F6.1632000000000007
sI2488
F6.1631999999999998
sI2489
F6.828800000000002
sI2490
F9.1177600000000041
sI2491
F7.1401600000000016
sI2492
F9.3337600000000016
sI2493
F12.901888000000003
sI2494
F7.1401600000000007
sI2495
F9.6409600000000015
sI2496
F7.9155200000000017
sI2497
F8.2380800000000018
sI2498
F10.432000000000004
sI2499
F12.662080000000003
sI2500
F13.217600000000003
sI2501
F10.241600000000002
sI2502
F11.705600000000002
sI2503
F11.705600000000002
sI2504
F12.174400000000002
sI2505
F12.174400000000004
sI2506
F12.174400000000004
sI2507
F11.859200000000003
sI2508
F8.7039999999999988
sI2509
F11.552000000000003
sI2510
F15.347200000000008
sI2511
F12.352000000000004
sI2512
F12.296000000000005
sI2513
F8.2409600000000012
sI2514
F10.976000000000003
sI2515
F4.0528000000000004
sI2516
F8.1101440000000018
sI2517
F7.3101440000000011
sI2518
F2.9520000000000004
sI2519
F14.556928000000003
sI2520
F13.739968000000005
sI2521
F14.556928000000005
sI2522
F7.2784000000000013
sI2523
F9.0869888000000003
sI2524
F6.7520000000000007
sI2525
F3.52
sI2526
F2.9199999999999999
sI2527
F4.9600000000000009
sI2528
F4.9600000000000009
sI2529
F6.6985600000000005
sI2530
F6.2367360000000005
sI2531
F6.5065600000000021
sI2532
F6.6985600000000023
sI2533
F10.643200000000004
sI2534
F11.202662400000003
sI2535
F10.506662400000003
sI2536
F5.1280000000000001
sI2537
F2.4400000000000004
sI2538
F13.849600000000006
sI2539
F4.9680000000000017
sI2540
F9.8990208000000042
sI2541
F8.2409600000000012
sI2542
F6.4432000000000009
sI2543
F5.8432000000000013
sI2544
F6.4432000000000009
sI2545
F5.8432000000000013
sI2546
F5.8432000000000013
sI2547
F5.8432000000000013
sI2548
F9.8618880000000022
sI2549
F10.661888000000001
sI2550
F6.1776
sI2551
F5.3809280000000017
sI2552
F16.300800000000006
sI2553
F6.7878400000000019
sI2554
F5.8601600000000014
sI2555
F5.3809280000000017
sI2556
F5.3809280000000017
sI2557
F5.3440000000000012
sI2558
F7.7468800000000009
sI2559
F11.531840000000003
sI2560
F3.3360000000000003
sI2561
F7.8313600000000028
sI2562
F6.4742400000000009
sI2563
F5.7680000000000007
sI2564
F11.190220800000004
sI2565
F9.6973312000000025
sI2566
F9.121331200000002
sI2567
F3.7200000000000002
sI2568
F11.054848000000005
sI2569
F4.8976000000000006
sI2570
F6.1120000000000001
sI2571
F10.263360000000002
sI2572
F10.263360000000002
sI2573
F6.0752000000000006
sI2574
F7.3129600000000021
sI2575
F6.9591680000000018
sI2576
F2.4400000000000004
sI2577
F2.4400000000000004
sI2578
F9.433600000000002
sI2579
F3.9760000000000004
sI2580
F5.2800000000000002
sI2581
F5.4400000000000004
sI2582
F5.4400000000000004
sI2583
F5.4400000000000004
sI2584
F5.8239999999999998
sI2585
F5.8239999999999998
sI2586
F5.4400000000000004
sI2587
F5.4400000000000004
sI2588
F5.4400000000000004
sI2589
F12.677440000000001
sI2590
F7.0255539200000019
sI2591
F10.203968000000003
sI2592
F10.203968000000003
sI2593
F15.097958400000007
sI2594
F12.588288000000006
sI2595
F15.097958400000007
sI2596
F12.588288000000006
sI2597
F8.8000000000000007
sI2598
F4.0527999999999995
sI2599
F4.0528000000000013
sI2600
F5.1328000000000014
sI2601
F8.2519680000000015
sI2602
F2.9520000000000004
sI2603
F7.5177600000000027
sI2604
F7.5177600000000027
sI2605
F7.0142080000000009
sI2606
F7.0142080000000018
sI2607
F6.6204431360000005
sI2608
F11.820288000000003
sI2609
F11.700766720000004
sI2610
F11.027520000000003
sI2611
F6.2080000000000002
sI2612
F9.1536000000000008
sI2613
F5.7280000000000015
sI2614
F5.4761600000000019
sI2615
F17.682688000000002
sI2616
F9.7726080000000017
sI2617
F10.013329920000002
sI2618
F10.013329920000004
sI2619
F9.7726080000000017
sI2620
F9.7726080000000017
sI2621
F9.7726080000000017
sI2622
F9.7726080000000035
sI2623
F2.952
sI2624
F2.952
sI2625
F17.525248000000012
sI2626
F5.1599999999999993
sI2627
F8.6231680000000033
sI2628
F2.9520000000000004
sI2629
F3.7520000000000007
sI2630
F11.023616000000002
sI2631
F3.3616000000000001
sI2632
F3.9514240000000003
sI2633
F3.552
sI2634
F4.9936000000000007
sI2635
F4.9920000000000009
sI2636
F6.7305600000000023
sI2637
F2.952
sI2638
F10.873600000000001
sI2639
F3.3616000000000006
sI2640
F8.0080000000000009
sI2641
F12.079680000000003
sI2642
F13.849600000000006
sI2643
F12.079680000000003
sI2644
F8.0080000000000009
sI2645
F8.0080000000000009
sI2646
F8.0080000000000009
sI2647
F8.0080000000000009
sI2648
F8.0080000000000009
sI2649
F8.0080000000000009
sI2650
F8.0080000000000009
sI2651
F7.6265600000000013
sI2652
F7.6265600000000013
sI2653
F7.6265600000000013
sI2654
F7.6265600000000013
sI2655
F7.6265600000000013
sI2656
F7.6265600000000013
sI2657
F7.6265600000000022
sI2658
F7.6265600000000013
sI2659
F6.7279999999999998
sI2660
F6.8879999999999999
sI2661
F7.2336000000000009
sI2662
F7.6265600000000013
sI2663
F7.6265600000000013
sI2664
F7.6265600000000013
sI2665
F7.6265600000000022
sI2666
F6.5488000000000008
sI2667
F10.203968000000003
sI2668
F12.588288000000004
sI2669
F15.097958400000005
sI2670
F7.9248000000000012
sI2671
F3.8160000000000007
sI2672
F10.976000000000003
sI2673
F6.6204431359999996
sI2674
F11.820288000000003
sI2675
F10.456230400000003
sI2676
F13.378726400000005
sI2677
F9.9828224000000034
sI2678
F11.151462400000003
sI2679
F11.475837440000001
sI2680
F12.499837440000002
sI2681
F8.4484633599999999
sI2682
F11.743347200000006
sI2683
F11.743347200000006
sI2684
F3.3616000000000006
sI2685
F11.274867200000006
sI2686
F13.731584000000003
sI2687
F13.220467200000003
sI2688
F6.6752000000000002
sI2689
F8.4096000000000011
sI2690
F3.5200000000000005
sI2691
F6.1094399999999993
sI2692
F12.837632000000005
sI2693
F8.2409600000000029
sI2694
F4.8719999999999999
sI2695
F8.2409600000000029
sI2696
F9.8990208000000024
sI2697
F8.2327680000000019
sI2698
F8.2409600000000029
sI2699
F7.6015744000000014
sI2700
F8.2519680000000015
sI2701
F4.3600000000000003
sI2702
F4.3600000000000003
sI2703
F8.0080000000000009
sI2704
F8.0080000000000009
sI2705
F8.2409600000000012
sI2706
F8.2409600000000012
sI2707
F7.6265600000000013
sI2708
F7.6265600000000013
sI2709
F8.0080000000000009
sI2710
F7.5927680000000013
sI2711
F8.2409600000000029
sI2712
F7.6015744000000023
sI2713
F9.5529600000000023
sI2714
F9.7513600000000018
sI2715
F9.7513600000000018
sI2716
F9.7513600000000018
sI2717
F8.2409600000000012
sI2718
F10.161984
sI2719
F5.8448000000000011
sI2720
F8.2409600000000029
sI2721
F6.0752000000000006
sI2722
F8.0080000000000009
sI2723
F8.0080000000000009
sI2724
F8.0080000000000009
sI2725
F8.4484633599999999
sI2726
F8.4484633599999999
sI2727
F6.0752000000000006
sI2728
F10.651200000000005
sI2729
F8.4484633599999999
sI2730
F8.4506752000000027
sI2731
F8.0080000000000009
sI2732
F3.3360000000000003
sI2733
F8.0080000000000009
sI2734
F8.0080000000000009
sI2735
F8.0080000000000009
sI2736
F8.2409600000000012
sI2737
F3.8160000000000007
sI2738
F2.9199999999999999
sI2739
F7.7596800000000012
sI2740
F8.0080000000000009
sI2741
F8.2409600000000012
sI2742
F13.352704000000003
sI2743
F8.0080000000000009
sI2744
F8.0080000000000009
sI2745
F8.0080000000000009
sI2746
F8.0080000000000009
sI2747
F8.2327680000000019
sI2748
F8.2409600000000012
sI2749
F8.2409600000000012
sI2750
F8.2409600000000012
sI2751
F11.468544000000005
sI2752
F8.2409600000000029
sI2753
F7.6265600000000022
sI2754
F11.270105600000001
sI2755
F8.2409600000000029
sI2756
F8.0080000000000009
sI2757
F10.344960000000004
sI2758
F9.3209600000000012
sI2759
F4.7952000000000004
sI2760
F7.0742144000000016
sI2761
F8.0080000000000009
sI2762
F8.0080000000000009
sI2763
F8.0080000000000009
sI2764
F8.0080000000000009
sI2765
F11.964160000000001
sI2766
F2.9199999999999999
sI2767
F6.8388480000000005
sI2768
F8.0727680000000017
sI2769
F3.3360000000000007
sI2770
F8.4096000000000011
sI2771
F13.081600000000003
sI2772
F9.8990208000000042
sI2773
F11.762864640000005
sI2774
F11.762864640000005
sI2775
F8.2409600000000029
sI2776
F6.0752000000000006
sI2777
F2.9199999999999999
sI2778
F3.3360000000000003
sI2779
F3.3360000000000003
sI2780
F8.0080000000000009
sI2781
F8.0080000000000009
sI2782
F8.0080000000000009
sI2783
F7.7596800000000012
sI2784
F8.4484633599999999
sI2785
F10.976000000000003
sI2786
F3.8159999999999998
sI2787
F6.8880000000000017
sI2788
F4.9600000000000009
sI2789
F4.9600000000000009
sI2790
F4.9600000000000009
sI2791
F4.7952000000000004
sI2792
F13.141760000000003
sI2793
F8.0080000000000009
sI2794
F8.0080000000000009
sI2795
F8.0080000000000009
sI2796
F7.6265600000000013
sI2797
F8.2409600000000012
sI2798
F7.6265600000000013
sI2799
F8.0080000000000009
sI2800
F8.0080000000000009
sI2801
F8.0080000000000009
sI2802
F15.779840000000004
sI2803
F9.0869888000000003
sI2804
F8.2519680000000015
sI2805
F12.313958400000001
sI2806
F13.220467200000003
sI2807
F10.750579200000006
sI2808
F4.7040000000000006
sI2809
F6.0752000000000024
sI2810
F12.837632000000003
sI2811
F5.2560000000000002
sI2812
F4.3088000000000006
sI2813
F10.016780800000003
sI2814
F3.7200000000000002
sI2815
F7.8912000000000004
sI2816
F7.8480000000000008
sI2817
F8.2409600000000029
sI2818
F10.192960000000003
sI2819
F3.689280000000001
sI2820
F8.2327680000000019
sI2821
F8.2327680000000019
sI2822
F10.372160000000003
sI2823
F13.167360000000002
sI2824
F6.0752000000000006
sI2825
F6.0752000000000024
sI2826
F6.0752000000000006
sI2827
F8.0105600000000035
sI2828
F13.900352000000005
sI2829
F7.3101440000000011
sI2830
F7.3101440000000011
sI2831
F7.3101440000000011
sI2832
F8.1101440000000036
sI2833
F7.8876800000000005
sI2834
F8.1101440000000036
sI2835
F7.8876800000000005
sI2836
F8.1101440000000018
sI2837
F7.8876800000000005
sI2838
F8.1101440000000018
sI2839
F7.8876800000000005
sI2840
F8.1101440000000018
sI2841
F7.8876800000000005
sI2842
F8.1101440000000018
sI2843
F8.1101440000000018
sI2844
F8.1101440000000018
sI2845
F8.1101440000000018
sI2846
F8.1101440000000018
sI2847
F10.862144000000002
sI2848
F7.8876800000000005
sI2849
F8.1101440000000036
sI2850
F8.1101440000000018
sI2851
F7.8876800000000022
sI2852
F7.3101440000000011
sI2853
F8.0080000000000009
sI2854
F8.0080000000000009
sI2855
F8.0080000000000009
sI2856
F8.0080000000000009
sI2857
F8.0080000000000009
sI2858
F8.0080000000000009
sI2859
F8.0080000000000009
sI2860
F8.0080000000000009
sI2861
F8.0080000000000009
sI2862
F8.0080000000000009
sI2863
F8.0080000000000009
sI2864
F8.0080000000000009
sI2865
F8.0080000000000009
sI2866
F8.0080000000000009
sI2867
F8.0080000000000009
sI2868
F8.0080000000000009
sI2869
F8.0080000000000009
sI2870
F6.0752000000000006
sI2871
F8.0080000000000009
sI2872
F8.0080000000000009
sI2873
F8.0080000000000009
sI2874
F8.0080000000000009
sI2875
F8.0080000000000009
sI2876
F8.0080000000000009
sI2877
F8.0080000000000009
sI2878
F8.0080000000000009
sI2879
F8.0080000000000009
sI2880
F8.0080000000000009
sI2881
F8.0080000000000027
sI2882
F8.0080000000000009
sI2883
F8.0080000000000009
sI2884
F8.0080000000000009
sI2885
F8.0080000000000009
sI2886
F8.0080000000000009
sI2887
F8.0080000000000009
sI2888
F8.0080000000000009
sI2889
F8.0080000000000009
sI2890
F8.0080000000000009
sI2891
F8.0080000000000009
sI2892
F8.0080000000000009
sI2893
F8.0080000000000009
sI2894
F8.0080000000000009
sI2895
F8.0080000000000009
sI2896
F8.0080000000000009
sI2897
F8.0080000000000009
sI2898
F8.0080000000000009
sI2899
F8.0080000000000009
sI2900
F8.0080000000000009
sI2901
F8.0080000000000009
sI2902
F8.0080000000000009
sI2903
F8.0080000000000009
sI2904
F8.0080000000000009
sI2905
F8.0080000000000009
sI2906
F8.0080000000000009
sI2907
F8.0080000000000009
sI2908
F8.0080000000000009
sI2909
F8.0080000000000009
sI2910
F8.0080000000000009
sI2911
F8.0080000000000009
sI2912
F8.0080000000000009
sI2913
F8.0080000000000027
sI2914
F8.0080000000000009
sI2915
F8.0080000000000009
sI2916
F8.0080000000000009
sI2917
F8.0080000000000009
sI2918
F8.0080000000000009
sI2919
F8.0080000000000009
sI2920
F8.0080000000000009
sI2921
F8.0080000000000009
sI2922
F8.0080000000000009
sI2923
F5.2560000000000002
sI2924
F5.2048000000000005
sI2925
F5.2048000000000005
sI2926
F6.0048000000000012
sI2927
F6.0048000000000012
sI2928
F6.0048000000000012
sI2929
F5.2560000000000002
sI2930
F7.7596800000000012
sI2931
F7.7596800000000012
sI2932
F7.7596800000000012
sI2933
F7.7596800000000012
sI2934
F5.2560000000000002
sI2935
F5.2560000000000002
sI2936
F5.2560000000000002
sI2937
F5.2560000000000002
sI2938
F12.323904000000002
sI2939
F9.3133440000000007
sI2940
F9.3133440000000007
sI2941
F9.3133440000000007
sI2942
F9.3133440000000007
sI2943
F9.3133440000000007
sI2944
F9.3133440000000025
sI2945
F9.3133440000000025
sI2946
F9.3133440000000025
sI2947
F8.0080000000000009
sI2948
F7.4064000000000032
sI2949
F7.4064000000000032
sI2950
F7.4064000000000032
sI2951
F7.4064000000000032
sI2952
F7.4064000000000032
sI2953
F7.4064000000000032
sI2954
F7.4064000000000014
sI2955
F7.4064000000000023
sI2956
F10.698304000000004
sI2957
F10.698304000000004
sI2958
F10.698304000000004
sI2959
F10.698304000000004
sI2960
F10.698304000000004
sI2961
F10.698304000000004
sI2962
F10.698304000000004
sI2963
F10.698304000000004
sI2964
F10.698304000000004
sI2965
F10.698304000000004
sI2966
F10.698304000000004
sI2967
F6.0752000000000006
sI2968
F8.6096000000000021
sI2969
F13.561600000000006
sI2970
F6.0752000000000006
sI2971
F12.405568000000006
sI2972
F8.9192166400000019
sI2973
F9.2672000000000008
sI2974
F3.3360000000000003
sI2975
F8.4096000000000011
sI2976
F9.6512000000000029
sI2977
F14.059008000000006
sI2978
F12.266560000000002
sI2979
F6.4847999999999999
sI2980
F6.0752000000000015
sI2981
F5.8601600000000023
sI2982
F5.8601600000000023
sI2983
F8.2181760000000015
sI2984
F8.2181760000000015
sI2985
F14.059008000000006
sI2986
F12.573760000000004
sI2987
F4.3600000000000012
sI2988
F6.0752000000000006
sI2989
F7.0742144000000016
sI2990
F8.6631040000000024
sI2991
F9.3648000000000007
sI2992
F8.8080000000000034
sI2993
F5.3632000000000009
sI2994
F11.775680000000005
sI2995
F7.1512192000000017
sI2996
F14.740288000000005
sI2997
F12.460608000000002
sI2998
F7.5927680000000013
sI2999
F2.9520000000000004
sI3000
F10.649088000000003
sI3001
F4.9270400000000008
sI3002
F15.168000000000008
sI3003
F5.3809280000000017
sI3004
F7.2985600000000002
sI3005
F3.3616000000000001
sI3006
F6.1776
sI3007
F9.6656000000000031
sI3008
F3.3616000000000001
sI3009
F6.1776000000000026
sI3010
F9.6656000000000013
sI3011
F3.6892800000000006
sI3012
F3.3616000000000001
sI3013
F6.1776
sI3014
F9.6656000000000031
sI3015
F3.3616000000000006
sI3016
F6.1776000000000009
sI3017
F9.6656000000000013
sI3018
F5.9420800000000016
sI3019
F5.9420800000000016
sI3020
F5.7536640000000014
sI3021
F5.7536640000000014
sI3022
F6.4029312000000012
sI3023
F3.3616000000000006
sI3024
F6.1776000000000009
sI3025
F9.6656000000000013
sI3026
F5.9420800000000007
sI3027
F5.9420800000000007
sI3028
F3.3616000000000001
sI3029
F3.3616000000000001
sI3030
F3.3616000000000001
sI3031
F3.3616000000000006
sI3032
F3.3616000000000001
sI3033
F8.0105600000000017
sI3034
F6.2544000000000013
sI3035
F8.3689600000000031
sI3036
F9.3737600000000025
sI3037
F6.7748480000000013
sI3038
F6.7305600000000005
sI3039
F9.3133440000000007
sI3040
F9.3133440000000007
sI3041
F7.2336000000000009
sI3042
F7.1512192000000034
sI3043
F8.2327680000000019
sI3044
F7.7596800000000021
sI3045
F2.9199999999999999
sI3046
F7.7124019200000014
sI3047
F7.7124019200000014
sI3048
F15.432960000000005
sI3049
F2.9199999999999999
sI3050
F5.2252800000000006
sI3051
F6.3844480000000017
sI3052
F10.108736000000002
sI3053
F7.0147200000000023
sI3054
F7.0003200000000003
sI3055
F6.2648448000000014
sI3056
F6.8275200000000007
sI3057
F7.1248000000000022
sI3058
F8.0515200000000018
sI3059
F2.9199999999999999
sI3060
F10.976000000000001
sI3061
F15.548160000000003
sI3062
F6.7748480000000022
sI3063
F6.7748480000000022
sI3064
F6.7748480000000022
sI3065
F3.52
sI3066
F3.8159999999999998
sI3067
F11.130624000000003
sI3068
F5.2560000000000002
sI3069
F6.2275200000000002
sI3070
F5.8601600000000005
sI3071
F9.1062400000000014
sI3072
F3.3360000000000007
sI3073
F5.1600000000000001
sI3074
F6.4192000000000018
sI3075
F5.8192000000000021
sI3076
F5.1600000000000001
sI3077
F3.6688000000000005
sI3078
F5.8192000000000021
sI3079
F8.5337600000000027
sI3080
F2.952
sI3081
F7.7596800000000012
sI3082
F8.8025600000000033
sI3083
F3.3360000000000003
sI3084
F3.6688000000000001
sI3085
F3.6688000000000001
sI3086
F7.0079999999999991
sI3087
F3.3360000000000003
sI3088
F3.8159999999999998
sI3089
F2.952
sI3090
F11.906560000000002
sI3091
F9.120000000000001
sI3092
F6.8790400000000034
sI3093
F7.0742144000000016
sI3094
F7.0742144000000025
sI3095
F7.0742144000000025
sI3096
F3.5200000000000005
sI3097
F3.8159999999999998
sI3098
F4.4160000000000004
sI3099
F6.6048
sI3100
F9.3105792000000047
sI3101
F9.3105792000000047
sI3102
F9.3105792000000047
sI3103
F9.3105792000000047
sI3104
F8.449600000000002
sI3105
F8.449600000000002
sI3106
F7.8650880000000027
sI3107
F9.0714240000000022
sI3108
F9.0714240000000022
sI3109
F4.8640000000000008
sI3110
F4.8640000000000008
sI3111
F4.8640000000000008
sI3112
F5.3632000000000009
sI3113
F5.3632000000000009
sI3114
F11.136768000000002
sI3115
F10.119270400000003
sI3116
F9.2032000000000025
sI3117
F9.4720000000000031
sI3118
F8.6105600000000031
sI3119
F12.214848000000003
sI3120
F6.6985600000000023
sI3121
F2.952
sI3122
F4.9600000000000009
sI3123
F4.9600000000000009
sI3124
F2.9520000000000004
sI3125
F3.3616000000000001
sI3126
F3.3616000000000001
sI3127
F3.3616000000000001
sI3128
F3.3616000000000001
sI3129
F2.952
sI3130
F2.952
sI3131
F3.3616000000000006
sI3132
F7.2784000000000031
sI3133
F7.2784000000000031
sI3134
F7.2784000000000031
sI3135
F7.2784000000000031
sI3136
F7.2784000000000031
sI3137
F7.2784000000000031
sI3138
F7.2784000000000031
sI3139
F7.2784000000000013
sI3140
F7.2784000000000031
sI3141
F7.2784000000000031
sI3142
F7.2784000000000031
sI3143
F7.2784000000000031
sI3144
F7.2784000000000031
sI3145
F7.2784000000000031
sI3146
F7.2784000000000031
sI3147
F2.9520000000000004
sI3148
F3.3616000000000006
sI3149
F3.3616000000000001
sI3150
F3.3616000000000006
sI3151
F3.3616000000000006
sI3152
F3.3616000000000001
sI3153
F3.3616000000000001
sI3154
F3.3616000000000001
sI3155
F3.3616000000000001
sI3156
F3.3616000000000006
sI3157
F3.3616000000000001
sI3158
F3.3616000000000006
sI3159
F3.3616000000000006
sI3160
F9.6089600000000015
sI3161
F10.032960000000001
sI3162
F7.611200000000002
sI3163
F2.9520000000000004
sI3164
F3.6892800000000006
sI3165
F3.6892800000000006
sI3166
F3.6892800000000006
sI3167
F2.9199999999999999
sI3168
F3.7519999999999998
sI3169
F5.1280000000000001
sI3170
F5.7279999999999998
sI3171
F5.7280000000000015
sI3172
F7.6015744000000014
sI3173
F7.6015744000000023
sI3174
F5.3632000000000009
sI3175
F5.3632000000000009
sI3176
F5.290560000000001
sI3177
F5.290560000000001
sI3178
F7.7596800000000012
sI3179
F7.7440000000000007
sI3180
F7.7440000000000007
sI3181
F7.7440000000000007
sI3182
F7.7440000000000007
sI3183
F7.7440000000000007
sI3184
F7.7440000000000007
sI3185
F12.313958400000001
sI3186
F11.451166720000005
sI3187
F11.451166720000005
sI3188
F14.656768000000005
sI3189
F2.952
sI3190
F2.9199999999999999
sI3191
F2.4400000000000004
sI3192
F3.52
sI3193
F4.032
sI3194
F7.2601600000000017
sI3195
F2.9520000000000004
sI3196
F2.9520000000000004
sI3197
F8.6697600000000019
sI3198
F8.4697600000000008
sI3199
F6.7305600000000005
sI3200
F3.3616000000000001
sI3201
F2.952
sI3202
F13.751040000000005
sI3203
F3.3360000000000003
sI3204
F3.6688000000000001
sI3205
F4.0528000000000013
sI3206
F4.0528000000000013
sI3207
F4.0528000000000013
sI3208
F4.0528000000000013
sI3209
F5.1600000000000001
sI3210
F5.128000000000001
sI3211
F5.128000000000001
sI3212
F5.1600000000000001
sI3213
F4.0528000000000013
sI3214
F5.1600000000000001
sI3215
F4.0528000000000013
sI3216
F4.0528000000000013
sI3217
F8.0105600000000017
sI3218
F1.8
sI3219
F10.718579200000002
sI3220
F8.0727680000000017
sI3221
F6.6985600000000014
sI3222
F7.8650880000000027
sI3223
F4.5327999999999999
sI3224
F4.9270400000000008
sI3225
F4.9270400000000008
sI3226
F4.9270400000000008
sI3227
F7.1798400000000022
sI3228
F6.2960000000000012
sI3229
F5.7040000000000006
sI3230
F3.3360000000000003
sI3231
F3.3360000000000003
sI3232
F3.6688000000000009
sI3233
F3.9350400000000003
sI3234
F4.1480320000000006
sI3235
F2.9520000000000004
sI3236
F3.3360000000000003
sI3237
F2.9199999999999999
sI3238
F4.4687999999999999
sI3239
F3.6688000000000001
sI3240
F3.6688000000000001
sI3241
F4.5576320000000017
sI3242
F4.3088000000000006
sI3243
F4.3088000000000006
sI3244
F6.4080000000000013
sI3245
F4.4470400000000003
sI3246
F7.5177600000000027
sI3247
F2.4400000000000004
sI3248
F2.4400000000000004
sI3249
F2.9199999999999999
sI3250
F6.9200000000000008
sI3251
F4.8399999999999999
sI3252
F4.8399999999999999
sI3253
F9.4895104000000003
sI3254
F12.469760000000003
sI3255
F14.711360000000004
sI3256
F13.911360000000004
sI3257
F6.8505599999999998
sI3258
F7.1512192000000017
sI3259
F6.2544000000000004
sI3260
F3.3360000000000003
sI3261
F6.3598720000000011
sI3262
F7.4582144000000028
sI3263
F4.2422400000000007
sI3264
F4.2422400000000007
sI3265
F9.4028800000000015
sI3266
F6.8388480000000005
sI3267
F6.8388480000000005
sI3268
F2.952
sI3269
F2.952
sI3270
F2.952
sI3271
F2.952
sI3272
F5.2560000000000011
sI3273
F8.3472000000000008
sI3274
F15.787520000000004
sI3275
F7.0992000000000024
sI3276
F8.3689600000000031
sI3277
F8.3689600000000031
sI3278
F5.6592000000000011
sI3279
F5.6592000000000011
sI3280
F5.6592000000000011
sI3281
F8.3689600000000031
sI3282
F5.6592000000000011
sI3283
F6.5961600000000029
sI3284
F2.952
sI3285
F4.4112000000000009
sI3286
F4.4112000000000009
sI3287
F4.4112000000000009
sI3288
F4.4112000000000009
sI3289
F4.4112000000000009
sI3290
F4.4112000000000009
sI3291
F4.4112000000000009
sI3292
F4.4112000000000009
sI3293
F3.8160000000000003
sI3294
F3.8160000000000003
sI3295
F3.8159999999999998
sI3296
F3.8160000000000007
sI3297
F3.8160000000000007
sI3298
F3.8160000000000003
sI3299
F6.6985600000000005
sI3300
F3.52
sI3301
F4.0527999999999995
sI3302
F5.3809280000000017
sI3303
F5.3809280000000017
sI3304
F6.1632000000000007
sI3305
F13.570880000000004
sI3306
F13.570880000000004
sI3307
F13.570880000000004
sI3308
F13.570880000000004
sI3309
F13.570880000000004
sI3310
F5.8448000000000011
sI3311
F4.7759999999999998
sI3312
F2.9200000000000004
sI3313
F2.9199999999999999
sI3314
F2.9200000000000004
sI3315
F2.9199999999999999
sI3316
F2.9199999999999999
sI3317
F3.52
sI3318
F2.4400000000000004
sI3319
F5.9280000000000008
sI3320
F4.5289600000000014
sI3321
F4.5289600000000014
sI3322
F3.8160000000000003
sI3323
F3.8160000000000003
sI3324
F2.9199999999999999
sI3325
F2.9199999999999999
sI3326
F4.0528000000000004
sI3327
F11.154240000000003
sI3328
F11.520000000000001
sI3329
F10.030400000000002
sI3330
F11.033600000000002
sI3331
F12.883200000000004
sI3332
F11.496000000000002
sI3333
F10.779200000000005
sI3334
F12.628800000000004
sI3335
F12.989760000000004
sI3336
F12.797248000000005
sI3337
F15.286848000000008
sI3338
F14.121728000000004
sI3339
F14.121728000000004
sI3340
F7.1696000000000009
sI3341
F2.9199999999999999
sI3342
F7.6265600000000013
sI3343
F15.531520000000004
sI3344
F5.8028160000000009
sI3345
F5.8028160000000018
sI3346
F5.8028160000000009
sI3347
F5.8028160000000009
sI3348
F5.8028160000000018
sI3349
F5.8028160000000009
sI3350
F5.8028160000000009
sI3351
F5.8028160000000009
sI3352
F5.8028160000000009
sI3353
F5.8028160000000018
sI3354
F5.8028160000000009
sI3355
F5.8028160000000018
sI3356
F5.8028160000000009
sI3357
F5.8028160000000009
sI3358
F5.8028160000000009
sI3359
F5.8028160000000009
sI3360
F4.7039999999999997
sI3361
F3.5200000000000005
sI3362
F3.52
sI3363
F4.4160000000000004
sI3364
F3.8160000000000003
sI3365
F3.8160000000000003
sI3366
F4.96
sI3367
F2.9199999999999999
sI3368
F3.8159999999999998
sI3369
F3.8159999999999998
sI3370
F3.52
sI3371
F3.52
sI3372
F3.8159999999999998
sI3373
F3.52
sI3374
F3.52
sI3375
F3.5200000000000005
sI3376
F3.52
sI3377
F3.52
sI3378
F3.52
sI3379
F4
sI3380
F4
sI3381
F4
sI3382
F4.1680000000000001
sI3383
F4.1680000000000001
sI3384
F4.3600000000000003
sI3385
F2.9199999999999999
sI3386
F3.7520000000000002
sI3387
F3.7520000000000002
sI3388
F4.8016000000000005
sI3389
F2.9520000000000004
sI3390
F4.1616
sI3391
F2.9520000000000004
sI3392
F6.0815999999999999
sI3393
F6.0815999999999999
sI3394
F5.4761600000000019
sI3395
F5.3809280000000017
sI3396
F14.575360000000003
sI3397
F5.8000000000000007
sI3398
F14.114560000000001
sI3399
F18.270528000000009
sI3400
F12.213760000000006
sI3401
F18.024768000000009
sI3402
F11.906560000000002
sI3403
F3.3360000000000003
sI3404
F12.115008000000003
sI3405
F12.693760000000003
sI3406
F12.115008000000001
sI3407
F12.019008000000001
sI3408
F11.773248000000004
sI3409
F12.693248000000004
sI3410
F12.939008000000003
sI3411
F11.869248000000004
sI3412
F11.869248000000002
sI3413
F2.952
sI3414
F15.808000000000005
sI3415
F15.159808000000007
sI3416
F11.009088000000002
sI3417
F3.4320000000000004
sI3418
F13.505600000000005
sI3419
F12.938560000000003
sI3420
F13.341760000000006
sI3421
F5.3047424000000012
sI3422
F12.531742720000004
sI3423
F5.3047424000000012
sI3424
F12.531742720000004
sI3425
F7.4880000000000022
sI3426
F9.6297600000000028
sI3427
F8.6032000000000028
sI3428
F9.1536000000000026
sI3429
F9.7968000000000011
sI3430
F8.2519680000000015
sI3431
F2.4400000000000004
sI3432
F3.7520000000000002
sI3433
F6.240000000000002
sI3434
F2.952
sI3435
F6.3598720000000011
sI3436
F6.3952000000000009
sI3437
F9.3887999999999998
sI3438
F9.3888000000000034
sI3439
F4.96
sI3440
F5.8448000000000011
sI3441
F11.016000000000002
sI3442
F12.194880000000001
sI3443
F10.279680000000001
sI3444
F12.357376000000004
sI3445
F13.480960000000005
sI3446
F13.032768000000004
sI3447
F14.762560000000004
sI3448
F7.070272000000001
sI3449
F7.5878400000000008
sI3450
F3.3616000000000001
sI3451
F6.4016000000000002
sI3452
F4.9936000000000007
sI3453
F10.263360000000004
sI3454
F3.3616000000000001
sI3455
F4.9936000000000007
sI3456
F11.600960000000004
sI3457
F10.230016000000003
sI3458
F10.230016000000003
sI3459
F10.230016000000003
sI3460
F10.230016000000003
sI3461
F10.230016000000003
sI3462
F10.230016000000003
sI3463
F10.230016000000003
sI3464
F10.230016000000003
sI3465
F4.9936000000000007
sI3466
F3.3616000000000001
sI3467
F2.9520000000000004
sI3468
F3.3616000000000006
sI3469
F3.6892800000000006
sI3470
F9.9369600000000009
sI3471
F7.3945600000000002
sI3472
F7.016
sI3473
F2.952
sI3474
F4.9936000000000007
sI3475
F3.3616000000000001
sI3476
F4.4892800000000008
sI3477
F7.072000000000001
sI3478
F10.698304000000004
sI3479
F6.4016000000000002
sI3480
F6.4016000000000002
sI3481
F6.4016000000000002
sI3482
F9.9356800000000032
sI3483
F10.169600000000003
sI3484
F14.438720000000004
sI3485
F12.20768
sI3486
F2.952
sI3487
F7.7248000000000001
sI3488
F9.9356800000000014
sI3489
F2.952
sI3490
F2.952
sI3491
F3.7520000000000002
sI3492
F12.462656000000003
sI3493
F4.1616000000000009
sI3494
F3.3616000000000006
sI3495
F2.952
sI3496
F4.9936000000000007
sI3497
F2.952
sI3498
F3.689280000000001
sI3499
F3.689280000000001
sI3500
F7.5968
sI3501
F3.689280000000001
sI3502
F3.3616000000000006
sI3503
F8.1649280000000033
sI3504
F8.1649280000000033
sI3505
F7.1798400000000022
sI3506
F7.5319424000000019
sI3507
F4.0528000000000013
sI3508
F4.2422400000000007
sI3509
F5.7040000000000006
sI3510
F5.1280000000000001
sI3511
F2.9199999999999999
sI3512
F3.3360000000000003
sI3513
F2.9199999999999999
sI3514
F5.4454400000000014
sI3515
F5.4454400000000014
sI3516
F7.865088000000001
sI3517
F7.5177600000000009
sI3518
F7.5177600000000009
sI3519
F7.5177600000000009
sI3520
F7.5177600000000027
sI3521
F5.5567999999999991
sI3522
F5.5568000000000008
sI3523
F5.5568000000000008
sI3524
F6.0560000000000009
sI3525
F5.6960000000000006
sI3526
F5.6960000000000006
sI3527
F7.8884480000000021
sI3528
F7.3107584000000019
sI3529
F6.6985600000000014
sI3530
F11.654400000000004
sI3531
F7.6838400000000009
sI3532
F2.9520000000000004
sI3533
F10.693440000000002
sI3534
F4.4800000000000004
sI3535
F9.8432000000000013
sI3536
F12.096000000000004
sI3537
F10.696000000000003
sI3538
F4.7632000000000012
sI3539
F7.7136000000000022
sI3540
F10.000960000000001
sI3541
F9.6809600000000007
sI3542
F8.7447680000000023
sI3543
F8.7447680000000023
sI3544
F8.7447680000000023
sI3545
F8.7447680000000023
sI3546
F2.952
sI3547
F9.0007680000000008
sI3548
F9.0007680000000008
sI3549
F9.8969600000000018
sI3550
F9.0007680000000008
sI3551
F9.0007680000000008
sI3552
F9.0007680000000025
sI3553
F2.952
sI3554
F5.2048000000000005
sI3555
F2.9520000000000004
sI3556
F10.978560000000003
sI3557
F4.7952000000000004
sI3558
F2.952
sI3559
F3.5520000000000005
sI3560
F2.952
sI3561
F8.5555200000000031
sI3562
F7.1902720000000002
sI3563
F2.9520000000000004
sI3564
F4.9936000000000007
sI3565
F4.8720000000000008
sI3566
F12.332800000000004
sI3567
F11.353600000000002
sI3568
F8.2006144000000027
sI3569
F8.2006144000000027
sI3570
F8.2006144000000027
sI3571
F8.2006144000000027
sI3572
F5.6144000000000007
sI3573
F11.786560000000001
sI3574
F10.432000000000002
sI3575
F10.432000000000002
sI3576
F8.0080000000000009
sI3577
F10.941760000000002
sI3578
F10.941760000000002
sI3579
F6.9056000000000006
sI3580
F6.6444800000000015
sI3581
F11.432000000000004
sI3582
F7.6838400000000027
sI3583
F10.551360000000004
sI3584
F6.8505600000000015
sI3585
F8.2368000000000006
sI3586
F8.2368000000000023
sI3587
F10.081600000000002
sI3588
F8.2368000000000023
sI3589
F10.873600000000001
sI3590
F6.600448000000001
sI3591
F6.8505600000000015
sI3592
F10.551360000000003
sI3593
F4.0960000000000001
sI3594
F6.8505600000000015
sI3595
F7.5878400000000008
sI3596
F13.796160000000006
sI3597
F6.9281280000000018
sI3598
F7.2601600000000026
sI3599
F7.9155200000000017
sI3600
F7.2077440000000026
sI3601
F17.380608000000006
sI3602
F2.952
sI3603
F3.3616000000000001
sI3604
F8.2409600000000012
sI3605
F12.145920000000004
sI3606
F6.5961600000000029
sI3607
F3.3616000000000006
sI3608
F9.9520000000000017
sI3609
F6.4016000000000002
sI3610
F7.298560000000001
sI3611
F7.4879999999999995
sI3612
F2.9520000000000004
sI3613
F7.4560000000000013
sI3614
F7.4560000000000013
sI3615
F6.9376000000000007
sI3616
F7.4560000000000013
sI3617
F7.4560000000000013
sI3618
F2.952
sI3619
F5.8256000000000014
sI3620
F17.793024000000006
sI3621
F8.3216000000000001
sI3622
F3.8736000000000006
sI3623
F3.8736000000000006
sI3624
F3.8736000000000006
sI3625
F10.380800000000002
sI3626
F7.2656000000000001
sI3627
F6.7520000000000007
sI3628
F8.6320000000000014
sI3629
F6.7520000000000007
sI3630
F10.380800000000002
sI3631
F2.952
sI3632
F8.4324480000000008
sI3633
F8.4324480000000026
sI3634
F9.886988800000001
sI3635
F17.296960000000006
sI3636
F8.8409600000000008
sI3637
F11.65568
sI3638
F6.4528000000000008
sI3639
F6.4528000000000008
sI3640
F6.4528000000000008
sI3641
F4.4800000000000004
sI3642
F10.651742720000005
sI3643
F10.651742720000003
sI3644
F8.2409600000000012
sI3645
F2.952
sI3646
F3.3616000000000001
sI3647
F6.2544000000000013
sI3648
F6.2543999999999995
sI3649
F8.2409600000000029
sI3650
F2.952
sI3651
F9.4869120000000002
sI3652
F3.3616000000000006
sI3653
F4.5914240000000008
sI3654
F4.5914240000000008
sI3655
F10.430323200000004
sI3656
F2.4400000000000004
sI3657
F8.8806400000000014
sI3658
F7.8650880000000019
sI3659
F16.173120000000001
sI3660
F9.9520000000000017
sI3661
F2.952
sI3662
F12.185600000000003
sI3663
F9.6512000000000011
sI3664
F4.7952000000000012
sI3665
F2.952
sI3666
F6.7465344000000025
sI3667
F9.661760000000001
sI3668
F18.703872000000011
sI3669
F4.8960000000000008
sI3670
F4.1616000000000009
sI3671
F9.5833600000000025
sI3672
F4.9168000000000012
sI3673
F4.9168000000000012
sI3674
F6.2544000000000013
sI3675
F8.5337600000000027
sI3676
F10.545472000000002
sI3677
F5.7292800000000002
sI3678
F7.025553920000001
sI3679
F7.9785600000000025
sI3680
F8.2695910400000034
sI3681
F8.2695910400000034
sI3682
F8.8409600000000008
sI3683
F8.3152000000000008
sI3684
F8.3152000000000008
sI3685
F8.3152000000000008
sI3686
F2.952
sI3687
F13.731584000000003
sI3688
F5.1280000000000001
sI3689
F8.8976384000000017
sI3690
F7.9785600000000008
sI3691
F10.565120000000002
sI3692
F8.392768000000002
sI3693
F11.920294400000003
sI3694
F11.754240000000005
sI3695
F2.952
sI3696
F9.7416192000000024
sI3697
F8.8806400000000014
sI3698
F2.952
sI3699
F16.108288000000009
sI3700
F2.9520000000000004
sI3701
F2.952
sI3702
F2.952
sI3703
F12.238400000000004
sI3704
F2.952
sI3705
F4.5519999999999996
sI3706
F2.952
sI3707
F9.39811072
sI3708
F9.3440000000000012
sI3709
F8.8320000000000007
sI3710
F6.1951999999999998
sI3711
F9.5586432000000041
sI3712
F5.2252799999999997
sI3713
F7.9964800000000009
sI3714
F11.023616000000002
sI3715
F10.000960000000003
sI3716
F11.711808000000005
sI3717
F5.3760000000000003
sI3718
F5.7679999999999998
sI3719
F9.1440000000000019
sI3720
F8.5355520000000009
sI3721
F8.5355520000000009
sI3722
F2.952
sI3723
F5.2048000000000023
sI3724
F13.680960000000002
sI3725
F10.331968000000002
sI3726
F2.952
sI3727
F7.7596800000000012
sI3728
F3.3616000000000001
sI3729
F13.800960000000005
sI3730
F2.952
sI3731
F6.1622400000000006
sI3732
F14.472960000000004
sI3733
F2.952
sI3734
F8.5427200000000028
sI3735
F6.056
sI3736
F7.7596800000000012
sI3737
F8.4940800000000003
sI3738
F7.0144000000000002
sI3739
F2.9520000000000004
sI3740
F2.9520000000000004
sI3741
F3.7519999999999998
sI3742
F8.449600000000002
sI3743
F2.952
sI3744
F2.952
sI3745
F2.952
sI3746
F10.721600000000004
sI3747
F10.803558400000004
sI3748
F10.8035584
sI3749
F10.803558400000002
sI3750
F14.656768000000008
sI3751
F2.952
sI3752
F2.4400000000000004
sI3753
F2.9520000000000004
sI3754
F2.9520000000000004
sI3755
F13.132608000000003
sI3756
F13.132608000000005
sI3757
F13.132608000000003
sI3758
F2.952
sI3759
F11.946560000000003
sI3760
F15.412288000000004
sI3761
F15.412288000000004
sI3762
F15.412288000000006
sI3763
F2.9520000000000004
sI3764
F12.357376000000004
sI3765
F6.6448000000000009
sI3766
F10.710848000000004
sI3767
F9.3200000000000003
sI3768
F9.6458880000000011
sI3769
F8.3689600000000031
sI3770
F8.9689600000000027
sI3771
F8.9689600000000027
sI3772
F12.301670400000006
sI3773
F12.301670400000006
sI3774
F6.5034240000000016
sI3775
F4.626240000000001
sI3776
F4.0016000000000007
sI3777
F2.952
sI3778
F2.952
sI3779
F6.1951999999999998
sI3780
F6.0752000000000015
sI3781
F9.2505600000000019
sI3782
F10.058560000000002
sI3783
F4.9936000000000007
sI3784
F10.152960000000002
sI3785
F10.698304000000004
sI3786
F5.3942400000000008
s.