(dp1
I0
F14.992829123218044
sI1
F7.7418388126638771
sI2
F6.1629076507455087
sI3
F10.553123376957485
sI4
F4.7228512059800716
sI5
F4.5734910926681795
sI6
F9.443753038322825
sI7
F12.235988757946402
sI8
F12.487303186227308
sI9
F13.814174126876399
sI10
F14.433213335282622
sI11
F9.6698191440796357
sI12
F7.1721889054965855
sI13
F12.467100478909789
sI14
F8.8279366170417859
sI15
F9.2066989072130898
sI16
F9.4713682053557982
sI17
F9.0652366527044723
sI18
F10.967477432482895
sI19
F10.415544140719488
sI20
F13.814174126876399
sI21
F13.740066154722676
sI22
F12.55048208784884
sI23
F12.913387581538208
sI24
F12.102457365321879
sI25
F1.8660639479563044
sI26
F13.606534762098153
sI27
F8.600493337012125
sI28
F9.2627293402444693
sI29
F14.181898907001715
sI30
F11.913215365683351
sI31
F4.1208237305601205
sI32
F7.044002395464446
sI33
F6.4092865512602728
sI34
F12.145016979740676
sI35
F10.407861644547472
sI36
F10.444229288718347
sI37
F12.301586040432216
sI38
F8.5510854522121047
sI39
F5.1900877487889971
sI40
F6.402664319345984
sI41
F13.606534762098153
sI42
F11.651735665625594
sI43
F11.056113505199527
sI44
F13.814174126876399
sI45
F13.334601046614512
sI46
F12.572460994567615
sI47
F13.383391210783945
sI48
F10.556077588854915
sI49
F14.58736401510988
sI50
F5.2152308105138037
sI51
F7.7214729402264419
sI52
F6.5156769813389905
sI53
F8.2286555727139312
sI54
F10.069205206111418
sI55
F4.1755639941387876
sI56
F11.291527149105551
sI57
F3.6921474533181904
sI58
F3.4393352958894785
sI59
F11.249224769414861
sI60
F10.258826065386984
sI61
F11.696992257213715
sI62
F11.715684390225867
sI63
F10.127219601172046
sI64
F10.331751305291657
sI65
F9.5439388981906337
sI66
F5.6813772498734503
sI67
F10.428480931750208
sI68
F11.608438859872271
sI69
F11.473848705899506
sI70
F12.528975882627876
sI71
F12.528975882627876
sI72
F7.8635315742886709
sI73
F6.8944142689720964
sI74
F10.550177866727728
sI75
F12.768205571693711
sI76
F12.715561838208288
sI78
F4.3814966825489128
sI79
F6.563538614977718
sI80
F13.288081030979619
sI82
F7.0667681869550227
sI83
F5.7980593462328196
sI84
F12.39013943777366
sI85
F11.984674329665497
sI86
F9.7108952359205318
sI87
F10.170533458241307
sI88
F11.734732585196562
sI89
F11.706294649876028
sI90
F9.5428642070608678
sI91
F8.0074185996703022
sI92
F13.288081030979619
sI93
F10.498590497937235
sI94
F13.01182765435146
sI95
F5.8354413161945962
sI96
F5.4686091016661749
sI97
F10.765995377949865
sI98
F14.58736401510988
sI99
F7.8784662615617966
sI100
F14.58736401510988
sI101
F9.0867863081640579
sI102
F11.846523991184679
sI103
F12.130628242288577
sI104
F11.423296426736673
sI105
F10.377708606376785
sI106
F11.511589033882352
sI107
F13.288081030979619
sI108
F10.945401480783696
sI109
F8.0830758415732333
sI110
F11.132099412177448
sI111
F9.2418450470775486
sI112
F13.383391210783945
sI113
F14.07653839134389
sI114
F10.096856737441929
sI115
F7.6935386416612408
sI116
F13.740066154722676
sI117
F14.992829123218044
sI118
F10.199106830685363
sI119
F8.7294308606264206
sI120
F7.3910520462653011
sI121
F3.2806860634798389
sI122
F1.8291333215848713
sI123
F8.8332053331286122
sI124
F9.1558278047756207
sI125
F9.934992227637494
sI126
F7.863131013498216
sI127
F9.9788660390291142
sI128
F11.132099412177448
sI129
F13.671073283235724
sI130
F16.379123484337935
sI131
F13.606534762098153
sI132
F11.237459927835275
sI133
F10.267656144835257
sI135
F12.268249620164623
sI136
F6.69522331378825
sI137
F12.795604545881824
sI138
F12.075058391133766
sI140
F15.280511195669826
sI142
F13.740066154722676
sI143
F8.1350522140421493
sI144
F11.725163134180411
sI145
F11.784003634203344
sI146
F10.071025042828404
sI147
F9.1609466459345281
sI148
F11.451869799180731
sI149
F14.181898907001715
sI150
F13.671073283235724
sI151
F8.1474813043645238
sI152
F13.288081030979619
sI153
F10.468326840297408
sI154
F9.5800676222791381
sI155
F6.9234085122062208
sI156
F8.1282423396372856
sI158
F12.145016979740676
sI159
F11.046404691072565
sI161
F13.083286618333606
sI162
F6.3065262689800825
sI163
F10.209512751846479
sI164
F12.823775422848522
sI165
F14.992829123218044
sI166
F10.004098664509838
sI167
F14.181898907001715
sI168
F8.4385396572336919
sI169
F11.814775292870099
sI170
F7.0781200774645097
sI171
F8.5411745683126519
sI172
F8.1934945931903282
sI173
F9.3067015838005638
sI174
F4.6222327523611986
sI175
F9.5890262488240303
sI176
F8.1824110771248648
sI177
F11.036789232373124
sI178
F7.3467143208544137
sI179
F10.441587279255508
sI180
F8.9537655973107828
sI181
F9.7262604549845886
sI182
F11.550809747035634
sI183
F9.0579349275984562
sI184
F11.591631741555888
sI185
F10.40277257504
sI186
F7.6869690905340349
sI187
F4.4774315608825939
sI188
F10.217916162642858
sI189
F10.071025042828404
sI190
F15.68597630377799
sI191
F14.433213335282622
sI192
F10.420698791308153
sI193
F8.3503423218507873
sI194
F10.919537970193776
sI195
F9.499767679877495
sI196
F10.331751305291657
sI197
F12.061635370801625
sI198
F16.379123484337935
sI199
F12.487303186227308
sI200
F11.095919755599946
sI201
F13.545910140281718
sI202
F12.408831570785813
sI203
F13.48875172644177
sI204
F13.606534762098153
sI205
F11.273178010437354
sI207
F12.594933850419674
sI208
F14.07653839134389
sI210
F11.38191121057382
sI212
F11.83582870206793
sI213
F11.132099412177448
sI214
F11.534936397879344
sI215
F10.886062040997386
sI216
F11.83582870206793
sI217
F10.814603077015242
sI218
F8.8025137173648975
sI219
F11.890487114605795
sI220
F12.130628242288577
sI221
F14.992829123218044
sI222
F14.769685571903834
sI223
F12.715561838208288
sI224
F6.5686287986509715
sI225
F7.6038830255996075
sI226
F12.945136279852788
sI227
F14.299681942658099
sI228
F15.68597630377799
sI229
F13.894216834549935
sI230
F9.3456170000502379
sI231
F6.2969877803741614
sI232
F8.1227757114199193
sI233
F14.181898907001715
sI234
F7.5704554222312206
sI235
F9.636242848546031
sI236
F16.379123484337935
sI237
F12.572460994567615
sI239
F14.181898907001715
sI240
F14.769685571903834
sI241
F10.484720650073085
sI242
F11.87931381400767
sI243
F12.55048208784884
sI244
F9.7957142621791711
sI245
F8.8670522385024686
sI247
F11.66062461304284
sI248
F15.68597630377799
sI249
F13.671073283235724
sI250
F14.992829123218044
sI252
F11.451869799180731
sI253
F7.9233802552379204
sI254
F12.945136279852788
sI255
F11.496321561751564
sI256
F13.981228211539564
sI257
F12.39013943777366
sI258
F11.846523991184679
sI259
F11.430363593959767
sI261
F14.433213335282622
sI262
F7.0228662374615975
sI263
F11.948306685494622
sI264
F13.981228211539564
sI265
F12.088664043189544
sI266
F9.2378783619874429
sI267
F13.606534762098153
sI268
F11.608438859872271
sI269
F12.075058391133766
sI270
F12.467100478909789
sI271
F11.696992257213715
sI272
F13.288081030979619
sI273
F11.116433295433049
sI274
F12.55048208784884
sI275
F12.130628242288577
sI276
F11.868263977821085
sI277
F14.769685571903834
sI280
F14.433213335282622
sI281
F13.894216834549935
sI282
F12.945136279852788
sI283
F10.367856309933773
sI284
F8.6920433285548011
sI285
F9.4302262620246218
sI286
F11.744394496108299
sI287
F11.19733993404585
sI288
F12.268249620164623
sI289
F10.215808680303294
sI290
F10.089407913428937
sI291
F10.023015823642044
sI292
F9.7643978841341745
sI293
F5.9170778458931537
sI294
F8.3684319452076341
sI295
F13.046918974162731
sI296
F10.498590497937235
sI297
F13.606534762098153
sI298
F12.130628242288577
sI299
F10.570980994357491
sI300
F9.5800676222791381
sI301
F6.1058670883519168
sI302
F11.237459927835275
sI303
F11.558841918732899
sI304
F10.985495937985574
sI305
F12.318680473791515
sI306
F12.130628242288577
sI307
F12.715561838208288
sI308
F11.3486855629455
sI309
F13.046918974162731
sI310
F13.434684505171495
sI311
F3.1951477378060837
sI312
F7.3914267886343108
sI313
F11.335698367418688
sI314
F10.044069232839876
sI315
F12.823775422848522
sI316
F13.160247659469734
sI317
F10.07284819738992
sI319
F11.997096849664054
sI320
F7.8129496707000756
sI321
F14.433213335282622
sI322
F14.07653839134389
sI323
F7.8567437662343975
sI324
F14.992829123218044
sI325
F12.318680473791515
sI326
F1.0296697626081064
sI327
F16.379123484337935
sI328
F12.336072216503384
sI329
F13.046918974162731
sI330
F15.68597630377799
sI332
F15.68597630377799
sI333
F8.9313722042900281
sI334
F13.606534762098153
sI335
F6.6204883084812867
sI336
F12.035318062484251
sI338
F12.220240400978263
sI340
F10.05118670060874
sI341
F9.2490249742123574
sI343
F7.6282821089624022
sI345
F6.1255073687331079
sI347
F13.894216834549935
sI348
F13.814174126876399
sI350
F12.204736214442297
sI352
F14.181898907001715
sI353
F14.181898907001715
sI354
F14.07653839134389
sI355
F-0
sI356
F5.0122763683040921
sI357
F12.55048208784884
sI358
F5.6915289296293539
sI359
F6.9171687290718484
sI360
F8.5435442376679696
sI361
F7.7398896670126724
sI362
F14.433213335282622
sI363
F9.6003385866527573
sI364
F10.589163313440682
sI365
F16.379123484337935
sI366
F8.8975677824284194
sI367
F12.617923368644373
sI368
F9.6601103299526745
sI369
F12.048390144051604
sI370
F12.048390144051604
sI371
F13.814174126876399
sI372
F14.992829123218044
sI373
F13.671073283235724
sI374
F12.690244030223999
sI375
F12.665551417633628
sI376
F11.960282876541337
sI377
F13.671073283235724
sI378
F15.280511195669826
sI379
F15.280511195669826
sI380
F16.379123484337935
sI381
F14.992829123218044
sI382
F15.68597630377799
sI383
F16.379123484337935
sI384
F16.379123484337935
sI385
F16.379123484337935
sI386
F16.379123484337935
sI387
F15.68597630377799
sI388
F13.894216834549935
sI389
F13.121026946316453
sI390
F13.288081030979619
sI391
F15.68597630377799
sI392
F16.379123484337935
sI393
F16.379123484337935
sI395
F16.379123484337935
sI396
F16.379123484337935
sI398
F15.280511195669826
sI399
F10.682029997832531
sI400
F13.48875172644177
sI401
F11.62553329323157
sI402
F13.740066154722676
sI403
F14.07653839134389
sI405
F13.894216834549935
sI408
F12.353771793602785
sI409
F14.992829123218044
sI410
F8.8268861967771333
sI411
F8.5066683342739555
sI412
F12.823775422848522
sI413
F10.348438224076672
sI414
F12.268249620164623
sI415
F14.769685571903834
sI416
F12.768205571693711
sI417
F1.8627654691875275
sI418
F1.0290067556435922
sI419
F12.268249620164623
sI420
F12.204736214442297
sI422
F15.280511195669826
sI424
F16.379123484337935
sI425
F9.6895242151589684
sI426
F3.5873162780317731
sI427
F7.9516362060061905
sI428
F6.1789445651924382
sI429
F5.2388862079619338
sI430
F9.7418654530534781
sI431
F7.7040722083061173
sI432
F8.5728341950709019
sI433
F13.121026946316453
sI434
F10.632920293797781
sI435
F11.83582870206793
sI436
F10.765995377949865
sI437
F10.765995377949865
sI438
F8.5036241918927278
sI439
F11.794156005667363
sI440
F9.0833884115886523
sI441
F7.5759997535087225
sI442
F12.204736214442297
sI443
F9.852628624767144
sI444
F13.606534762098153
sI445
F9.7007813696836021
sI446
F9.7471217069423055
sI447
F6.3421107891968154
sI448
F11.132099412177448
sI449
F11.132099412177448
sI450
F7.2987779089779394
sI451
F11.83582870206793
sI452
F11.83582870206793
sI453
F8.9742359087218091
sI454
F11.273178010437354
sI455
F10.310697896093824
sI456
F11.773953298349843
sI457
F10.936705773816142
sI458
F11.696992257213715
sI459
F9.886883649317463
sI460
F8.9354598012223434
sI461
F9.7033002627030864
sI462
F8.3091553352780938
sI463
F14.769685571903834
sI464
F10.412976745214243
sI465
F9.371522870386082
sI466
F11.936472227847618
sI467
F11.890487114605795
sI468
F14.07653839134389
sI469
F13.814174126876399
sI470
F10.698950875320868
sI471
F11.322877678989627
sI472
F10.702369682069653
sI473
F8.7727360945652819
sI474
F8.3265086655223683
sI475
F6.2903604089314928
sI476
F10.64578220744019
sI477
F8.8004666337431718
sI478
F12.408831570785813
sI479
F8.7213682132030694
sI480
F10.845733995610415
sI481
F10.890185758181248
sI482
F11.437481061728631
sI483
F12.116443607296619
sI484
F11.825246592737393
sI485
F16.379123484337935
sI486
F14.992829123218044
sI489
F10.377708606376785
sI490
F13.01182765435146
sI491
F11.687775602108792
sI493
F12.487303186227308
sI494
F13.740066154722676
sI495
F11.997096849664054
sI497
F11.550809747035634
sI498
F16.379123484337935
sI500
F16.379123484337935
sI501
F11.291527149105551
sI502
F11.566939128965517
sI503
F16.379123484337935
sI504
F16.379123484337935
sI505
F13.334601046614512
sI506
F12.665551417633628
sI507
F14.181898907001715
sI508
F13.383391210783945
sI509
F14.992829123218044
sI510
F14.992829123218044
sI512
F16.379123484337935
sI513
F14.299681942658099
sI514
F13.48875172644177
sI515
F10.052974011182835
sI516
F6.8873706529235665
sI517
F6.9453995898429355
sI518
F12.55048208784884
sI519
F7.8579382716521602
sI520
F15.280511195669826
sI521
F11.66062461304284
sI522
F9.8366515238311312
sI523
F8.159528030160855
sI524
F10.256630674823549
sI525
F10.076504508593031
sI526
F11.66062461304284
sI527
F11.66062461304284
sI528
F11.651735665625594
sI529
F12.467100478909789
sI530
F12.268249620164623
sI531
F9.975549286403119
sI532
F12.39013943777366
sI533
F10.274330251922949
sI534
F9.7751796597374625
sI535
F14.299681942658099
sI536
F14.299681942658099
sI537
F14.299681942658099
sI538
F14.299681942658099
sI539
F13.48875172644177
sI540
F9.9526350268802446
sI541
F8.6063707678691941
sI542
F5.6096495098374
sI543
F13.981228211539564
sI544
F10.564992952512869
sI545
F9.4055804648177954
sI546
F10.133016718856371
sI547
F10.217916162642858
sI548
F8.0025726227241627
sI549
F9.1207113337426282
sI550
F12.371790299105465
sI551
F11.678643118545519
sI552
F7.1889858196792717
sI553
F9.0344044301882622
sI554
F8.9766719635196903
sI555
F11.01783131862851
sI556
F6.4934435504517714
sI557
F8.6707128170805667
sI558
F7.8774501045797347
sI559
F9.7617205063634582
sI560
F9.7617205063634582
sI561
F9.4331094932387067
sI562
F11.566939128965517
sI563
F11.527093220418317
sI564
F15.280511195669826
sI565
F11.303949669104108
sI566
F11.303949669104108
sI567
F13.046918974162731
sI568
F12.945136279852788
sI569
F13.981228211539564
sI570
F12.145016979740676
sI571
F11.26112967192118
sI572
F11.202973751764105
sI573
F12.447297851613609
sI574
F10.392671479053497
sI575
F11.237459927835275
sI576
F10.911063343202803
sI577
F10.444229288718347
sI578
F6.3149211287619114
sI579
F9.9286530621937583
sI580
F7.5139530646861612
sI581
F8.3386766030348252
sI582
F11.355242963491659
sI583
F11.279257056513737
sI584
F9.784710024588156
sI585
F10.780701525339561
sI586
F8.7327697618919355
sI587
F10.05118670060874
sI588
F16.379123484337935
sI589
F14.992829123218044
sI590
F14.58736401510988
sI591
F14.769685571903834
sI592
F14.769685571903834
sI593
F11.18062645307211
sI594
F9.8266155973033449
sI595
F12.507922473430044
sI596
F12.235988757946402
sI598
F11.473848705899506
sI599
F13.01182765435146
sI600
F9.9254984854452424
sI601
F8.7327697618919355
sI602
F14.433213335282622
sI604
F9.8323380735774109
sI605
F9.6995242984935519
sI606
F9.6233545623536791
sI607
F10.535579067306575
sI608
F11.936472227847618
sI609
F11.3486855629455
sI610
F12.301586040432216
sI611
F11.051247315548354
sI612
F10.607682361207919
sI613
F14.58736401510988
sI614
F12.284778922115834
sI615
F11.00384507665377
sI616
F10.281049202171694
sI617
F13.01182765435146
sI618
F13.606534762098153
sI619
F5.5712963310474066
sI620
F11.687775602108792
sI621
F10.877865273793208
sI622
F9.6649529544284629
sI623
F11.634191355974686
sI624
F11.225831889840157
sI625
F7.7779568591455188
sI626
F7.3143870862205436
sI627
F11.997096849664054
sI628
F10.444229288718347
sI629
F12.913387581538208
sI630
F12.715561838208288
sI631
F11.66062461304284
sI632
F10.334118170301924
sI633
F8.7913062643445077
sI634
F10.604571938793526
sI635
F11.550809747035634
sI636
F8.3029189570989086
sI638
F11.846523991184679
sI639
F8.8400964285139398
sI640
F16.379123484337935
sI641
F14.992829123218044
sI642
F8.6319585178175995
sI643
F12.977926102675779
sI644
F13.981228211539564
sI645
F9.8166793906442145
sI646
F12.882615922871455
sI647
F9.9239249209978126
sI648
F11.335698367418688
sI649
F4.3424581446707808
sI650
F5.7460603946283104
sI651
F6.5022366135989857
sI652
F15.68597630377799
sI653
F11.948306685494622
sI654
F12.284778922115834
sI655
F10.265441304505703
sI656
F10.042297753191495
sI657
F11.473848705899506
sI658
F8.4364059437641448
sI659
F8.7767221486721159
sI662
F14.992829123218044
sI663
F13.545910140281718
sI665
F16.379123484337935
sI666
F13.545910140281718
sI667
F13.606534762098153
sI668
F10.045843856198244
sI669
F8.627218151259326
sI670
F10.301481240988901
sI671
F10.119542020273013
sI672
F10.733676586694697
sI673
F7.4995118743558988
sI674
F6.7639848932412914
sI675
F8.1160486485353385
sI676
F8.0164810527702954
sI677
F9.8294727421041248
sI678
F12.795604545881824
sI679
F11.051247315548354
sI680
F9.2815746337231424
sI681
F12.145016979740676
sI682
F10.678679910947249
sI683
F13.434684505171495
sI684
F12.251989099292844
sI685
F11.342170881924305
sI686
F9.6374227896858802
sI687
F14.58736401510988
sI688
F14.58736401510988
sI689
F11.575102439604679
sI690
F13.243629268408785
sI691
F9.8395375287202658
sI692
F8.4971859950658644
sI693
F8.4471203319765511
sI694
F8.5290199391623531
sI695
F14.769685571903834
sI696
F12.075058391133766
sI698
F7.4646317741465937
sI699
F8.1802090393509452
sI700
F9.651691759487079
sI702
F10.577005108960872
sI703
F11.890487114605795
sI704
F8.2166072341977561
sI705
F11.814775292870099
sI706
F9.6445318243649876
sI707
F7.7899817936091136
sI708
F12.690244030223999
sI709
F12.048390144051604
sI710
F12.795604545881824
sI711
F13.288081030979619
sI712
F14.07653839134389
sI713
F13.160247659469734
sI714
F12.795604545881824
sI715
F11.285373283531172
sI716
F13.434684505171495
sI717
F14.181898907001715
sI718
F12.977926102675779
sI719
F12.945136279852788
sI720
F9.4292670293371632
sI721
F13.334601046614512
sI722
F14.769685571903834
sI723
F12.251989099292844
sI724
F13.334601046614512
sI725
F12.715561838208288
sI726
F12.174430864946968
sI727
F13.671073283235724
sI728
F14.433213335282622
sI729
F14.433213335282622
sI731
F11.335698367418688
sI732
F13.20106965398999
sI734
F13.243629268408785
sI735
F11.997096849664054
sI736
F12.852762959721774
sI737
F15.280511195669826
sI738
F13.160247659469734
sI742
F9.0363442950060886
sI743
F7.1070297160862701
sI744
F8.9100395994167005
sI745
F12.55048208784884
sI746
F13.383391210783945
sI747
F13.383391210783945
sI748
F13.981228211539564
sI749
F9.8929626953938463
sI750
F9.8380934851480308
sI752
F12.665551417633628
sI753
F10.556077588854915
sI754
F13.814174126876399
sI755
F15.68597630377799
sI756
F15.68597630377799
sI758
F11.634191355974686
sI759
F15.280511195669826
sI760
F14.181898907001715
sI761
F10.256630674823549
sI763
F10.822295422638398
sI764
F10.810778980576838
sI765
F9.255450699133327
sI766
F13.545910140281718
sI767
F12.061635370801625
sI769
F10.265441304505703
sI770
F11.972404237073683
sI771
F11.984674329665497
sI772
F13.160247659469734
sI773
F11.466468598601883
sI774
F12.852762959721774
sI775
F14.992829123218044
sI776
F13.083286618333606
sI777
F10.026494088018369
sI778
F10.709242561357415
sI779
F8.8797001937457072
sI780
F9.9052327879856605
sI781
F11.027265350861869
sI782
F4.6205496127134271
sI783
F12.235988757946402
sI784
F10.144712758619564
sI785
F13.671073283235724
sI786
F12.715561838208288
sI787
F13.981228211539564
sI788
F14.992829123218044
sI789
F14.992829123218044
sI790
F16.379123484337935
sI791
F14.992829123218044
sI793
F16.379123484337935
sI794
F14.07653839134389
sI795
F12.913387581538208
sI797
F11.285373283531172
sI798
F15.68597630377799
sI799
F11.297719119353472
sI800
F14.07653839134389
sI801
F14.58736401510988
sI802
F15.68597630377799
sI804
F14.58736401510988
sI805
F14.433213335282622
sI806
F14.299681942658099
sI807
F14.181898907001715
sI808
F15.68597630377799
sI809
F14.07653839134389
sI810
F16.379123484337935
sI811
F15.68597630377799
sI812
F15.68597630377799
sI813
F15.68597630377799
sI814
F14.992829123218044
sI815
F13.981228211539564
sI816
F14.299681942658099
sI820
F15.68597630377799
sI821
F14.299681942658099
sI822
F11.451869799180731
sI824
F15.68597630377799
sI826
F8.3132299373736611
sI827
F14.992829123218044
sI829
F12.268249620164623
sI830
F15.68597630377799
sI831
F14.433213335282622
sI833
F14.181898907001715
sI834
F12.641453866054567
sI835
F12.913387581538208
sI836
F13.894216834549935
sI837
F10.446878296889924
sI838
F14.07653839134389
sI839
F11.444649551207243
sI840
F12.795604545881824
sI841
F13.48875172644177
sI842
F15.68597630377799
sI843
F15.280511195669826
sI847
F14.181898907001715
sI848
F11.243325047287673
sI849
F16.379123484337935
sI851
F13.046918974162731
sI852
F12.251989099292844
sI853
F13.545910140281718
sI854
F13.20106965398999
sI855
F14.992829123218044
sI856
F14.181898907001715
sI857
F14.769685571903834
sI858
F14.58736401510988
sI859
F14.769685571903834
sI860
F14.769685571903834
sI861
F15.280511195669826
sI862
F14.58736401510988
sI863
F8.6135544032406184
sI864
F10.108135052479636
sI865
F14.433213335282622
sI866
F10.61393238155309
sI867
F13.083286618333606
sI868
F10.949777855383495
sI869
F8.7390003116425721
sI870
F8.7390003116425721
sI871
F7.9151201214358169
sI872
F13.606534762098153
sI873
F12.882615922871455
sI874
F15.280511195669826
sI877
F14.299681942658099
sI878
F14.07653839134389
sI879
F14.992829123218044
sI881
F10.121455896455297
sI883
F16.379123484337935
sI884
F15.68597630377799
sI887
F12.617923368644373
sI888
F10.405313872468673
sI889
F14.07653839134389
sI890
F12.882615922871455
sI891
F12.447297851613609
sI893
F9.4055804648177954
sI894
F11.66062461304284
sI895
F10.400237719436813
sI896
F12.159615779161829
sI899
F13.814174126876399
sI900
F9.8409836605702647
sI901
F14.769685571903834
sI902
F9.942973115968508
sI903
F9.6221910950903808
sI904
F10.589163313440682
sI905
F15.68597630377799
sI909
F14.07653839134389
sI910
F14.07653839134389
sI911
F15.68597630377799
sI919
F14.769685571903834
sI920
F14.992829123218044
sI921
F16.379123484337935
sI923
F15.68597630377799
sI924
F13.814174126876399
sI925
F15.68597630377799
sI929
F8.7742290035263153
sI930
F15.68597630377799
sI931
F10.521190329854475
sI934
F11.744394496108299
sI935
F12.39013943777366
sI936
F11.599999991226406
sI937
F12.353771793602785
sI938
F16.379123484337935
sI939
F15.68597630377799
sI940
F14.58736401510988
sI941
F14.433213335282622
sI942
F16.379123484337935
sI943
F16.379123484337935
sI944
F8.9337059276362467
sI945
F7.9056732158696166
sI946
F7.7263509986798748
sI947
F8.4464024568559868
sI948
F8.4076924865685836
sI949
F16.379123484337935
sI950
F16.379123484337935
sI951
F11.013147469316083
sI952
F7.7997069497415659
sI953
F9.1178983923660137
sI954
F10.490245526005054
sI955
F16.379123484337935
sI956
F9.9461833915987548
sI957
F14.433213335282622
sI958
F13.160247659469734
sI959
F16.379123484337935
sI960
F14.992829123218044
sI961
F8.4446100204556718
sI962
F12.353771793602785
sI963
F14.299681942658099
sI964
F16.379123484337935
sI965
F16.379123484337935
sI966
F16.379123484337935
sI968
F15.280511195669826
sI969
F12.318680473791515
sI973
F12.768205571693711
sI974
F16.379123484337935
sI975
F13.814174126876399
sI977
F15.68597630377799
sI978
F16.379123484337935
sI979
F14.181898907001715
sI980
F15.68597630377799
sI981
F8.9436854645233836
sI982
F10.377708606376785
sI983
F13.894216834549935
sI984
F8.2431907123330443
sI985
F6.0027302675360534
sI986
F10.45754506469412
sI987
F10.197038577621303
sI988
F9.1384737900824682
sI989
F10.089407913428937
sI991
F11.503926161136784
sI992
F16.379123484337935
sI995
F12.235988757946402
sI996
F10.853670545206151
sI997
F10.261026286296588
sI998
F10.994628421548846
sI999
F14.992829123218044
sI1000
F9.2036337707137132
sI1001
F8.4733131716790027
sI1002
F13.740066154722676
sI1003
F11.706294649876028
sI1005
F10.313015394234187
sI1006
F16.379123484337935
sI1007
F10.598379968545606
sI1008
F12.487303186227308
sI1009
F14.992829123218044
sI1010
F10.390162067448072
sI1011
F14.07653839134389
sI1013
F13.814174126876399
sI1014
F16.379123484337935
sI1015
F10.810778980576838
sI1016
F15.280511195669826
sI1017
F12.318680473791515
sI1018
F8.2777488131093531
sI1019
F13.545910140281718
sI1020
F15.68597630377799
sI1023
F10.945401480783696
sI1024
F11.784003634203344
sI1025
F12.035318062484251
sI1026
F13.894216834549935
sI1027
F14.07653839134389
sI1028
F5.2610793339362258
sI1029
F6.3965013286380792
sI1030
F14.07653839134389
sI1031
F12.102457365321879
sI1032
F8.6135544032406184
sI1033
F15.280511195669826
sI1034
F13.545910140281718
sI1035
F11.754150671053663
sI1036
F3.618961723402677
sI1037
F12.715561838208288
sI1038
F10.261026286296588
sI1039
F10.799393658351713
sI1040
F12.284778922115834
sI1041
F12.009675631870913
sI1042
F13.288081030979619
sI1043
F12.145016979740676
sI1044
F8.9988676959114748
sI1045
F8.5455232606768305
sI1046
F11.519311079976262
sI1047
F10.038764180610183
sI1048
F11.715684390225867
sI1049
F10.306078950237531
sI1050
F11.273178010437354
sI1051
F11.220068185123406
sI1052
F14.58736401510988
sI1053
F13.814174126876399
sI1054
F10.201179370287335
sI1055
F12.55048208784884
sI1057
F9.0209297316049017
sI1058
F10.239238932111679
sI1062
F14.992829123218044
sI1063
F14.992829123218044
sI1064
F16.379123484337935
sI1065
F11.451869799180731
sI1066
F10.274330251922949
sI1068
F10.256630674823549
sI1069
F14.769685571903834
sI1070
F11.368488190241679
sI1071
F10.64578220744019
sI1072
F11.527093220418317
sI1073
F11.527093220418317
sI1074
F11.402389741917361
sI1075
F12.852762959721774
sI1076
F9.4369667786384657
sI1077
F14.58736401510988
sI1078
F12.39013943777366
sI1079
F13.814174126876399
sI1080
F10.541393037171995
sI1081
F11.678643118545519
sI1082
F12.641453866054567
sI1083
F12.39013943777366
sI1084
F10.274330251922949
sI1086
F9.9855327303873036
sI1087
F16.379123484337935
sI1091
F15.68597630377799
sI1092
F15.68597630377799
sI1093
F16.379123484337935
sI1094
F13.606534762098153
sI1095
F14.992829123218044
sI1096
F13.083286618333606
sI1097
F13.383391210783945
sI1098
F13.383391210783945
sI1100
F10.234937850212289
sI1101
F15.68597630377799
sI1102
F13.814174126876399
sI1103
F12.159615779161829
sI1104
F13.383391210783945
sI1105
F9.1284879724392542
sI1106
F15.68597630377799
sI1107
F13.894216834549935
sI1108
F16.379123484337935
sI1109
F12.427879765756508
sI1110
F14.769685571903834
sI1111
F12.009675631870913
sI1112
F14.299681942658099
sI1113
F11.036789232373124
sI1114
F15.68597630377799
sI1115
F14.992829123218044
sI1116
F14.992829123218044
sI1117
F11.022537209665922
sI1118
F14.58736401510988
sI1119
F12.353771793602785
sI1120
F8.7308604534360157
sI1121
F7.5472655491400298
sI1122
F10.158533314238195
sI1123
F13.981228211539564
sI1124
F10.553123376957485
sI1125
F13.894216834549935
sI1126
F10.949777855383495
sI1127
F12.55048208784884
sI1128
F11.634191355974686
sI1142
F13.671073283235724
sI1143
F14.769685571903834
sI1144
F13.981228211539564
sI1145
F14.769685571903834
sI1147
F13.981228211539564
sI1148
F16.379123484337935
sI1150
F14.769685571903834
sI1151
F11.651735665625594
sI1152
F14.181898907001715
sI1153
F14.299681942658099
sI1154
F15.68597630377799
sI1155
F12.823775422848522
sI1156
F12.715561838208288
sI1157
F14.433213335282622
sI1159
F11.503926161136784
sI1160
F13.01182765435146
sI1167
F12.852762959721774
sI1168
F12.528975882627876
sI1169
F16.379123484337935
sI1170
F16.379123484337935
sI1171
F10.932386112671624
sI1172
F10.719641268578314
sI1173
F11.972404237073683
sI1174
F10.604571938793526
sI1175
F6.9560131814751029
sI1176
F15.68597630377799
sI1177
F8.7579283215280892
sI1178
F12.447297851613609
sI1180
F12.235988757946402
sI1181
F12.795604545881824
sI1182
F13.334601046614512
sI1184
F10.341252564415797
sI1185
F12.145016979740676
sI1186
F13.288081030979619
sI1187
F15.68597630377799
sI1188
F11.027265350861869
sI1189
F12.353771793602785
sI1190
F11.794156005667363
sI1191
F13.434684505171495
sI1192
F13.383391210783945
sI1194
F15.68597630377799
sI1195
F12.427879765756508
sI1198
F11.83582870206793
sI1199
F15.280511195669826
sI1200
F13.046918974162731
sI1201
F15.280511195669826
sI1202
F9.7563871603880958
sI1203
F8.6622173490395458
sI1204
F9.3229482002375246
sI1208
F10.881955259044734
sI1209
F10.865694738172953
sI1210
F13.20106965398999
sI1211
F8.4066574683633686
sI1212
F9.6637400980032542
sI1213
F9.4956608979248429
sI1214
F9.270879344606394
sI1215
F11.744394496108299
sI1216
F10.372770324736202
sI1217
F12.741537324611549
sI1218
F11.008485456210272
sI1219
F12.913387581538208
sI1221
F15.68597630377799
sI1230
F15.280511195669826
sI1231
F15.68597630377799
sI1232
F14.58736401510988
sI1234
F13.121026946316453
sI1235
F14.07653839134389
sI1237
F15.68597630377799
sI1238
F9.3500359201882723
sI1239
F9.3500359201882723
sI1240
F10.209512751846479
sI1241
F11.231629007524482
sI1242
F10.299190289242345
sI1243
F12.55048208784884
sI1244
F11.608438859872271
sI1245
F12.408831570785813
sI1246
F12.301586040432216
sI1247
F12.251989099292844
sI1248
F11.960282876541337
sI1249
F13.121026946316453
sI1250
F15.68597630377799
sI1251
F10.963023082133514
sI1252
F11.519311079976262
sI1253
F12.268249620164623
sI1254
F8.6865538362700292
sI1255
F11.542841577386456
sI1257
F10.348438224076672
sI1258
F9.0019897715039807
sI1259
F8.2829152126878984
sI1260
F9.3420958696516578
sI1261
F11.202973751764105
sI1262
F10.343642051813179
sI1263
F9.724970964154716
sI1264
F9.3394631344758601
sI1265
F9.2490249742123574
sI1266
F16.379123484337935
sI1268
F15.68597630377799
sI1269
F11.310219282117703
sI1270
F13.740066154722676
sI1271
F10.473761636283365
sI1272
F10.833946039858372
sI1273
F13.083286618333606
sI1274
F6.1578369604462155
sI1275
F13.48875172644177
sI1276
F10.949777855383495
sI1277
F9.6152385757754999
sI1279
F8.2200348296700234
sI1280
F7.1181850595986607
sI1281
F8.3236483425806611
sI1282
F7.7441472572653138
sI1283
F9.8395375287202658
sI1284
F10.428480931750208
sI1285
F9.6601103299526745
sI1286
F12.768205571693711
sI1287
F12.408831570785813
sI1288
F12.641453866054567
sI1289
F11.651735665625594
sI1290
F11.64292503594344
sI1291
F11.706294649876028
sI1292
F11.814775292870099
sI1293
F9.6601103299526745
sI1294
F16.379123484337935
sI1295
F8.2942528551997441
sI1297
F13.160247659469734
sI1298
F10.473761636283365
sI1300
F11.249224769414861
sI1301
F11.329267477088397
sI1302
F9.5090700725398101
sI1305
F12.130628242288577
sI1306
F10.915291679312325
sI1307
F8.8310945144029205
sI1308
F10.382671395718914
sI1309
F10.849694396826511
sI1310
F15.68597630377799
sI1313
F8.3875312022698427
sI1314
F16.379123484337935
sI1315
F9.3769675299343138
sI1316
F11.451869799180731
sI1317
F11.575102439604679
sI1318
F11.725163134180411
sI1319
F13.981228211539564
sI1320
F14.58736401510988
sI1321
F11.901786669859728
sI1322
F14.992829123218044
sI1323
F13.334601046614512
sI1324
F9.4515655780596184
sI1325
F13.740066154722676
sI1326
F14.769685571903834
sI1327
F11.846523991184679
sI1328
F15.280511195669826
sI1330
F11.511589033882352
sI1331
F12.116443607296619
sI1332
F13.434684505171495
sI1333
F12.130628242288577
sI1334
F10.306078950237531
sI1335
F14.58736401510988
sI1336
F11.255159504934676
sI1337
F10.668696466963064
sI1338
F10.695543716999254
sI1339
F14.433213335282622
sI1340
F13.981228211539564
sI1341
F14.433213335282622
sI1342
F12.447297851613609
sI1343
F11.715684390225867
sI1344
F16.379123484337935
sI1346
F16.379123484337935
sI1352
F15.68597630377799
sI1353
F16.379123484337935
sI1354
F12.487303186227308
sI1355
F15.280511195669826
sI1356
F10.049402578815238
sI1357
F12.174430864946968
sI1359
F9.7392476505113983
sI1360
F10.928085030772234
sI1361
F10.16251738325307
sI1362
F14.299681942658099
sI1363
F14.58736401510988
sI1364
F16.379123484337935
sI1366
F13.981228211539564
sI1367
F11.62553329323157
sI1368
F14.181898907001715
sI1369
F12.371790299105465
sI1371
F13.545910140281718
sI1373
F16.379123484337935
sI1375
F12.301586040432216
sI1376
F13.545910140281718
sI1377
F11.687775602108792
sI1378
F11.273178010437354
sI1379
F11.550809747035634
sI1380
F13.288081030979619
sI1381
F13.48875172644177
sI1382
F13.288081030979619
sI1383
F13.083286618333606
sI1385
F12.174430864946968
sI1386
F3.2368025896727119
sI1387
F11.550809747035634
sI1388
F13.48875172644177
sI1389
F12.507922473430044
sI1390
F12.913387581538208
sI1391
F13.814174126876399
sI1393
F12.823775422848522
sI1394
F13.545910140281718
sI1395
F11.924776188084428
sI1396
F13.671073283235724
sI1398
F12.116443607296619
sI1400
F11.430363593959767
sI1401
F9.0120464244569227
sI1402
F13.434684505171495
sI1403
F14.299681942658099
sI1404
F12.075058391133766
sI1405
F13.671073283235724
sI1406
F9.8380934851480308
sI1407
F7.754152700748266
sI1408
F13.20106965398999
sI1409
F13.383391210783945
sI1410
F11.153376810624733
sI1411
F10.449534340948039
sI1412
F16.379123484337935
sI1413
F14.992829123218044
sI1414
F15.280511195669826
sI1415
F14.58736401510988
sI1416
F14.181898907001715
sI1418
F16.379123484337935
sI1421
F14.769685571903834
sI1422
F9.0652366527044723
sI1423
F15.68597630377799
sI1424
F13.20106965398999
sI1425
F9.1616800526414028
sI1426
F15.68597630377799
sI1427
F14.299681942658099
sI1428
F9.9160940274172642
sI1429
F15.280511195669826
sI1430
F12.528975882627876
sI1431
F15.280511195669826
sI1432
F14.769685571903834
sI1433
F11.754150671053663
sI1434
F12.617923368644373
sI1435
F13.434684505171495
sI1437
F10.685391345535235
sI1438
F9.6698191440796357
sI1439
F13.545910140281718
sI1440
F14.992829123218044
sI1441
F11.527093220418317
sI1442
F9.9145351806479738
sI1443
F10.570980994357491
sI1444
F11.18062645307211
sI1445
F11.208639489299783
sI1446
F14.992829123218044
sI1447
F14.992829123218044
sI1448
F12.427879765756508
sI1449
F12.235988757946402
sI1450
F13.671073283235724
sI1451
F16.379123484337935
sI1452
F14.992829123218044
sI1453
F8.2967212304116913
sI1454
F12.251989099292844
sI1455
F13.288081030979619
sI1456
F14.433213335282622
sI1457
F14.992829123218044
sI1458
F12.882615922871455
sI1459
F13.545910140281718
sI1460
F15.280511195669826
sI1461
F15.280511195669826
sI1462
F13.606534762098153
sI1463
F13.606534762098153
sI1464
F15.280511195669826
sI1465
F15.280511195669826
sI1466
F11.316528451310969
sI1467
F10.294624071262763
sI1468
F11.466468598601883
sI1469
F13.981228211539564
sI1470
F13.383391210783945
sI1471
F14.992829123218044
sI1474
F12.852762959721774
sI1475
F12.009675631870913
sI1476
F12.715561838208288
sI1477
F15.68597630377799
sI1478
F5.2662876015390312
sI1479
F2.7181520149551677
sI1480
F15.68597630377799
sI1481
F10.853670545206151
sI1482
F11.794156005667363
sI1483
F12.204736214442297
sI1484
F11.901786669859728
sI1486
F14.58736401510988
sI1487
F11.116433295433049
sI1488
F12.220240400978263
sI1489
F12.102457365321879
sI1490
F11.142681521507985
sI1491
F14.992829123218044
sI1492
F12.130628242288577
sI1493
F11.027265350861869
sI1494
F10.74791170251657
sI1495
F11.997096849664054
sI1496
F10.241396430251701
sI1497
F12.39013943777366
sI1498
F12.130628242288577
sI1499
F11.784003634203344
sI1500
F14.992829123218044
sI1502
F14.992829123218044
sI1505
F14.299681942658099
sI1506
F14.769685571903834
sI1507
F15.280511195669826
sI1519
F13.981228211539564
sI1520
F15.68597630377799
sI1521
F14.181898907001715
sI1522
F12.371790299105465
sI1523
F13.894216834549935
sI1524
F12.268249620164623
sI1525
F9.225289682759092
sI1526
F10.203256214232173
sI1527
F12.301586040432216
sI1528
F11.616949549540179
sI1529
F14.58736401510988
sI1530
F10.26987590157357
sI1531
F13.814174126876399
sI1532
F10.6393305721587
sI1533
F13.894216834549935
sI1534
F14.769685571903834
sI1535
F12.690244030223999
sI1536
F10.94104417541474
sI1537
F11.984674329665497
sI1538
F11.972404237073683
sI1539
F14.769685571903834
sI1540
F9.5935358393300056
sI1541
F15.68597630377799
sI1542
F15.68597630377799
sI1543
F14.992829123218044
sI1545
F12.235988757946402
sI1546
F11.26112967192118
sI1547
F13.160247659469734
sI1548
F9.8778338137975457
sI1549
F6.6138640510852502
sI1550
F10.559040553985573
sI1570
F11.3486855629455
sI1571
F13.814174126876399
sI1572
F12.371790299105465
sI1574
F13.243629268408785
sI1577
F16.379123484337935
sI1578
F14.769685571903834
sI1579
F15.280511195669826
sI1584
F10.762352386671363
sI1585
F10.410415924352568
sI1586
F8.8050784789657346
sI1587
F12.852762959721774
sI1588
F14.58736401510988
sI1591
F16.379123484337935
sI1593
F16.379123484337935
sI1595
F12.336072216503384
sI1596
F11.534936397879344
sI1597
F12.130628242288577
sI1598
F13.083286618333606
sI1599
F11.080806117789898
sI1600
F14.769685571903834
sI1601
F5.5927985761868717
sI1604
F12.301586040432216
sI1606
F11.784003634203344
sI1607
F11.575102439604679
sI1608
F5.6070659361390636
sI1610
F14.769685571903834
sI1611
F12.690244030223999
sI1612
F14.433213335282622
sI1613
F13.434684505171495
sI1614
F12.159615779161829
sI1615
F9.0076341891236584
sI1616
F13.334601046614512
sI1617
F12.507922473430044
sI1620
F14.181898907001715
sI1622
F12.467100478909789
sI1623
F15.68597630377799
sI1625
F13.288081030979619
sI1626
F13.545910140281718
sI1627
F11.402389741917361
sI1628
F13.981228211539564
sI1631
F10.556077588854915
sI1632
F10.556077588854915
sI1634
F15.68597630377799
sI1636
F14.992829123218044
sI1638
F15.68597630377799
sI1642
F14.769685571903834
sI1648
F15.280511195669826
sI1649
F15.280511195669826
sI1651
F14.992829123218044
sI1652
F14.992829123218044
sI1653
F15.280511195669826
sI1654
F15.68597630377799
sI1655
F13.046918974162731
sI1656
F13.383391210783945
sI1657
F14.58736401510988
sI1658
F10.336490650655554
sI1662
F12.102457365321879
sI1663
F9.9922441649752898
sI1664
F11.764002967496676
sI1665
F11.846523991184679
sI1666
F13.20106965398999
sI1667
F11.106123925774188
sI1669
F11.3486855629455
sI1670
F13.606534762098153
sI1671
F10.632920293797781
sI1672
F16.379123484337935
sI1673
F11.814775292870099
sI1674
F10.990051754521435
sI1675
F12.371790299105465
sI1676
F11.972404237073683
sI1677
F12.977926102675779
sI1678
F13.48875172644177
sI1679
F15.280511195669826
sI1680
F14.299681942658099
sI1681
F15.68597630377799
sI1685
F11.773953298349843
sI1686
F11.013147469316083
sI1687
F11.83582870206793
sI1688
F14.58736401510988
sI1689
F14.433213335282622
sI1692
F13.671073283235724
sI1693
F12.823775422848522
sI1694
F13.740066154722676
sI1695
F16.379123484337935
sI1696
F10.592226102971226
sI1697
F11.267135695981391
sI1698
F11.566939128965517
sI1699
F13.046918974162731
sI1700
F10.336490650655554
sI1701
F11.496321561751564
sI1703
F12.977926102675779
sI1704
F10.919537970193776
sI1705
F13.740066154722676
sI1706
F12.088664043189544
sI1707
F13.434684505171495
sI1708
F12.318680473791515
sI1709
F12.487303186227308
sI1710
F11.924776188084428
sI1711
F11.890487114605795
sI1712
F8.5699880862173963
sI1713
F9.5612929128837845
sI1714
F12.55048208784884
sI1715
F14.07653839134389
sI1716
F12.977926102675779
sI1718
F15.280511195669826
sI1719
F13.814174126876399
sI1721
F11.297719119353472
sI1722
F14.992829123218044
sI1723
F10.322339471109311
sI1724
F14.58736401510988
sI1725
F14.299681942658099
sI1726
F14.299681942658099
sI1731
F13.48875172644177
sI1732
F15.280511195669826
sI1733
F8.311974444427829
sI1736
F14.992829123218044
sI1737
F13.121026946316453
sI1739
F14.181898907001715
sI1741
F13.160247659469734
sI1746
F13.545910140281718
sI1747
F12.075058391133766
sI1748
F14.299681942658099
sI1750
F15.68597630377799
sI1754
F14.769685571903834
sI1761
F16.379123484337935
sI1762
F13.01182765435146
sI1766
F13.243629268408785
sI1767
F10.877865273793208
sI1769
F16.379123484337935
sI1770
F14.992829123218044
sI1775
F11.202973751764105
sI1776
F11.18062645307211
sI1777
F12.268249620164623
sI1778
F11.634191355974686
sI1779
F14.299681942658099
sI1780
F15.68597630377799
sI1781
F13.243629268408785
sI1782
F15.280511195669826
sI1783
F11.18062645307211
sI1784
F13.671073283235724
sI1785
F11.784003634203344
sI1786
F12.39013943777366
sI1787
F13.48875172644177
sI1788
F12.048390144051604
sI1789
F12.268249620164623
sI1790
F14.07653839134389
sI1792
F12.690244030223999
sI1794
F12.528975882627876
sI1795
F15.68597630377799
sI1796
F15.280511195669826
sI1797
F14.992829123218044
sI1798
F12.467100478909789
sI1799
F11.825246592737393
sI1800
F14.58736401510988
sI1801
F12.301586040432216
sI1802
F13.334601046614512
sI1803
F14.299681942658099
sI1804
F15.68597630377799
sI1805
F14.433213335282622
sI1806
F11.846523991184679
sI1807
F14.299681942658099
sI1808
F11.6695932830256
sI1809
F14.07653839134389
sI1811
F15.68597630377799
sI1812
F7.9128026232954536
sI1813
F8.7390003116425721
sI1814
F10.662095782931713
sI1815
F13.981228211539564
sI1816
F9.6589033292026389
sI1817
F11.6695932830256
sI1818
F11.715684390225867
sI1819
F15.280511195669826
sI1826
F13.545910140281718
sI1827
F14.433213335282622
sI1830
F14.769685571903834
sI1831
F10.462921421730499
sI1833
F15.280511195669826
sI1834
F13.671073283235724
sI1835
F13.894216834549935
sI1837
F15.68597630377799
sI1838
F12.617923368644373
sI1839
F15.280511195669826
sI1841
F14.992829123218044
sI1842
F15.68597630377799
sI1843
F11.036789232373124
sI1844
F10.287813602260236
sI1845
F11.056113505199527
sI1846
F10.932386112671624
sI1847
F11.725163134180411
sI1848
F10.35325751051262
sI1849
F14.769685571903834
sI1850
F11.608438859872271
sI1851
F16.379123484337935
sI1852
F12.220240400978263
sI1853
F11.754150671053663
sI1854
F12.795604545881824
sI1855
F12.741537324611549
sI1856
F11.322877678989627
sI1857
F14.769685571903834
sI1858
F12.768205571693711
sI1859
F10.723131673518083
sI1862
F14.992829123218044
sI1863
F15.68597630377799
sI1864
F14.299681942658099
sI1865
F14.299681942658099
sI1867
F11.6695932830256
sI1868
F11.696992257213715
sI1869
F11.291527149105551
sI1870
F11.794156005667363
sI1871
F11.451869799180731
sI1872
F11.237459927835275
sI1874
F13.48875172644177
sI1881
F16.379123484337935
sI1883
F13.20106965398999
sI1884
F15.68597630377799
sI1885
F13.121026946316453
sI1888
F13.814174126876399
sI1890
F13.740066154722676
sI1892
F12.913387581538208
sI1894
F14.299681942658099
sI1895
F14.07653839134389
sI1896
F13.814174126876399
sI1898
F13.814174126876399
sI1899
F14.07653839134389
sI1902
F15.280511195669826
sI1903
F14.299681942658099
sI1904
F15.280511195669826
sI1905
F14.992829123218044
sI1906
F13.981228211539564
sI1907
F13.981228211539564
sI1909
F13.894216834549935
sI1910
F13.894216834549935
sI1912
F14.07653839134389
sI1913
F13.243629268408785
sI1920
F12.235988757946402
sI1921
F12.852762959721774
sI1924
F15.68597630377799
sI1925
F11.804412505834552
sI1926
F15.68597630377799
sI1940
F14.299681942658099
sI1941
F11.503926161136784
sI1942
F15.68597630377799
sI1943
F12.048390144051604
sI1945
F9.4977121806953999
sI1946
F13.671073283235724
sI1947
F15.68597630377799
sI1948
F15.68597630377799
sI1954
F13.740066154722676
sI1955
F12.945136279852788
sI1956
F12.220240400978263
sI1957
F12.235988757946402
sI1964
F12.715561838208288
sI1965
F13.20106965398999
sI1966
F16.379123484337935
sI1967
F13.606534762098153
sI1968
F15.280511195669826
sI1969
F13.545910140281718
sI1970
F12.353771793602785
sI1971
F9.8929626953938463
sI1972
F11.466468598601883
sI1973
F12.945136279852788
sI1974
F11.948306685494622
sI1975
F10.936705773816142
sI1976
F15.68597630377799
sI1977
F13.083286618333606
sI1978
F14.58736401510988
sI1979
F13.48875172644177
sI1980
F13.606534762098153
sI1981
F11.519311079976262
sI1982
F10.911063343202803
sI1983
F14.299681942658099
sI1984
F14.181898907001715
sI1985
F12.18946874231151
sI1986
F11.303949669104108
sI1987
F16.379123484337935
sI1988
F13.20106965398999
sI1989
F14.181898907001715
sI1990
F14.299681942658099
sI1991
F14.769685571903834
sI1992
F12.913387581538208
sI1994
F13.434684505171495
sI1995
F11.451869799180731
sI1996
F11.279257056513737
sI2004
F16.379123484337935
sI2006
F12.977926102675779
sI2008
F14.07653839134389
sI2010
F14.58736401510988
sI2011
F12.371790299105465
sI2012
F15.68597630377799
sI2013
F14.769685571903834
sI2014
F12.048390144051604
sI2016
F14.58736401510988
sI2017
F14.58736401510988
sI2018
F13.288081030979619
sI2019
F15.68597630377799
sI2020
F14.433213335282622
sI2021
F14.992829123218044
sI2022
F13.545910140281718
sI2023
F12.061635370801625
sI2024
F13.48875172644177
sI2025
F15.68597630377799
sI2026
F14.07653839134389
sI2027
F10.586109875953792
sI2028
F14.181898907001715
sI2029
F8.8470353407962126
sI2030
F16.379123484337935
sI2032
F11.01783131862851
sI2033
F13.740066154722676
sI2035
F12.284778922115834
sI2036
F14.181898907001715
sI2037
F14.58736401510988
sI2038
F13.671073283235724
sI2039
F16.379123484337935
sI2041
F12.572460994567615
sI2042
F10.418118144714661
sI2044
F14.299681942658099
sI2046
F11.065917505296147
sI2047
F13.48875172644177
sI2048
F12.235988757946402
sI2049
F14.769685571903834
sI2050
F13.288081030979619
sI2051
F13.981228211539564
sI2052
F14.58736401510988
sI2058
F13.894216834549935
sI2059
F14.433213335282622
sI2060
F14.992829123218044
sI2061
F11.423296426736673
sI2062
F14.992829123218044
sI2063
F14.992829123218044
sI2064
F14.992829123218044
sI2065
F14.992829123218044
sI2066
F14.992829123218044
sI2067
F14.992829123218044
sI2068
F14.992829123218044
sI2069
F12.088664043189544
sI2070
F13.671073283235724
sI2071
F12.617923368644373
sI2072
F12.741537324611549
sI2073
F14.769685571903834
sI2074
F9.8223451281798919
sI2075
F16.379123484337935
sI2076
F13.243629268408785
sI2077
F10.873791948405572
sI2078
F13.160247659469734
sI2079
F12.641453866054567
sI2080
F13.083286618333606
sI2082
F13.671073283235724
sI2083
F15.68597630377799
sI2086
F14.58736401510988
sI2088
F15.68597630377799
sI2089
F16.379123484337935
sI2090
F15.280511195669826
sI2093
F12.690244030223999
sI2094
F14.769685571903834
sI2098
F14.769685571903834
sI2099
F14.769685571903834
sI2103
F13.606534762098153
sI2107
F15.68597630377799
sI2108
F15.280511195669826
sI2109
F13.121026946316453
sI2110
F14.769685571903834
sI2111
F14.58736401510988
sI2112
F15.68597630377799
sI2114
F12.795604545881824
sI2115
F12.795604545881824
sI2116
F14.299681942658099
sI2117
F13.434684505171495
sI2130
F13.981228211539564
sI2133
F16.379123484337935
sI2148
F15.68597630377799
sI2149
F16.379123484337935
sI2150
F16.379123484337935
sI2152
F16.379123484337935
sI2154
F14.433213335282622
sI2155
F14.433213335282622
sI2157
F12.268249620164623
sI2164
F14.769685571903834
sI2165
F11.87931381400767
sI2166
F13.083286618333606
sI2168
F14.299681942658099
sI2169
F13.814174126876399
sI2170
F12.594933850419674
sI2171
F16.379123484337935
sI2172
F12.159615779161829
sI2173
F13.160247659469734
sI2174
F10.877865273793208
sI2175
F11.566939128965517
sI2177
F14.07653839134389
sI2178
F14.769685571903834
sI2179
F13.981228211539564
sI2180
F15.68597630377799
sI2181
F12.284778922115834
sI2183
F13.894216834549935
sI2184
F13.20106965398999
sI2185
F13.671073283235724
sI2186
F12.447297851613609
sI2187
F12.882615922871455
sI2188
F11.794156005667363
sI2189
F12.594933850419674
sI2190
F13.981228211539564
sI2191
F12.048390144051604
sI2193
F11.17511679726114
sI2194
F11.634191355974686
sI2195
F12.371790299105465
sI2196
F12.022414657648342
sI2197
F15.68597630377799
sI2198
F13.894216834549935
sI2199
F13.814174126876399
sI2204
F16.379123484337935
sI2205
F9.0076341891236584
sI2207
F14.992829123218044
sI2208
F13.434684505171495
sI2209
F13.083286618333606
sI2210
F14.299681942658099
sI2211
F13.981228211539564
sI2212
F12.977926102675779
sI2213
F9.9705946932784357
sI2214
F8.731814651981697
sI2215
F15.68597630377799
sI2217
F12.715561838208288
sI2218
F12.641453866054567
sI2219
F13.334601046614512
sI2220
F12.353771793602785
sI2221
F12.467100478909789
sI2222
F12.353771793602785
sI2223
F8.3431971144461432
sI2224
F11.6695932830256
sI2225
F14.58736401510988
sI2226
F14.58736401510988
sI2229
F12.852762959721774
sI2230
F13.545910140281718
sI2232
F10.471040546169004
sI2233
F10.441587279255508
sI2234
F15.68597630377799
sI2235
F15.68597630377799
sI2236
F15.68597630377799
sI2237
F10.911063343202803
sI2238
F10.685391345535235
sI2239
F11.960282876541337
sI2240
F10.471040546169004
sI2241
F10.026494088018369
sI2242
F12.594933850419674
sI2243
F10.243558593256196
sI2244
F10.795627175556236
sI2245
F12.977926102675779
sI2246
F10.784412104736095
sI2247
F12.913387581538208
sI2248
F13.894216834549935
sI2249
F13.121026946316453
sI2251
F12.035318062484251
sI2252
F6.2558580379638986
sI2253
F11.924776188084428
sI2254
F14.769685571903834
sI2256
F13.814174126876399
sI2258
F13.046918974162731
sI2259
F15.280511195669826
sI2261
F15.280511195669826
sI2262
F14.992829123218044
sI2263
F14.992829123218044
sI2264
F14.58736401510988
sI2265
F12.594933850419674
sI2269
F14.58736401510988
sI2270
F14.433213335282622
sI2271
F13.545910140281718
sI2272
F13.545910140281718
sI2274
F13.288081030979619
sI2275
F13.383391210783945
sI2276
F15.68597630377799
sI2277
F13.545910140281718
sI2278
F14.992829123218044
sI2279
F14.58736401510988
sI2280
F14.58736401510988
sI2281
F13.434684505171495
sI2282
F13.545910140281718
sI2283
F13.160247659469734
sI2284
F15.68597630377799
sI2286
F16.379123484337935
sI2288
F16.379123484337935
sI2292
F14.58736401510988
sI2293
F12.408831570785813
sI2294
F11.997096849664054
sI2295
F12.507922473430044
sI2296
F12.507922473430044
sI2297
F13.606534762098153
sI2298
F8.5996565168796106
sI2300
F16.379123484337935
sI2301
F16.379123484337935
sI2307
F14.433213335282622
sI2308
F14.433213335282622
sI2313
F15.68597630377799
sI2314
F15.68597630377799
sI2319
F9.8838579284009267
sI2320
F16.379123484337935
sI2321
F13.894216834549935
sI2329
F15.280511195669826
sI2330
F15.280511195669826
sI2331
F16.379123484337935
sI2337
F14.992829123218044
sI2338
F14.769685571903834
sI2341
F16.379123484337935
sI2345
F14.181898907001715
sI2347
F14.992829123218044
sI2348
F12.977926102675779
sI2349
F13.383391210783945
sI2351
F14.181898907001715
sI2358
F14.769685571903834
sI2359
F16.379123484337935
sI2361
F14.58736401510988
sI2363
F16.379123484337935
sI2364
F16.379123484337935
sI2365
F16.379123484337935
sI2372
F12.823775422848522
sI2373
F16.379123484337935
sI2374
F14.433213335282622
sI2375
F15.68597630377799
sI2376
F16.379123484337935
sI2382
F12.39013943777366
sI2383
F12.318680473791515
sI2384
F10.662095782931713
sI2385
F16.379123484337935
sI2386
F13.981228211539564
sI2387
F14.58736401510988
sI2388
F16.379123484337935
sI2390
F12.336072216503384
sI2392
F10.535579067306575
sI2395
F14.299681942658099
sI2397
F14.58736401510988
sI2398
F14.58736401510988
sI2399
F11.202973751764105
sI2401
F14.433213335282622
sI2407
F12.487303186227308
sI2409
F14.07653839134389
sI2410
F11.936472227847618
sI2412
F14.58736401510988
sI2413
F13.083286618333606
sI2414
F15.280511195669826
sI2415
F15.280511195669826
sI2417
F16.379123484337935
sI2418
F14.992829123218044
sI2419
F13.434684505171495
sI2420
F15.68597630377799
sI2423
F14.433213335282622
sI2424
F15.68597630377799
sI2425
F14.433213335282622
sI2426
F14.769685571903834
sI2427
F13.160247659469734
sI2428
F13.243629268408785
sI2430
F13.243629268408785
sI2432
F15.68597630377799
sI2434
F14.992829123218044
sI2435
F13.20106965398999
sI2436
F14.07653839134389
sI2437
F13.814174126876399
sI2440
F16.379123484337935
sI2443
F13.814174126876399
sI2444
F13.981228211539564
sI2445
F15.280511195669826
sI2446
F12.823775422848522
sI2447
F13.894216834549935
sI2448
F12.408831570785813
sI2450
F11.19173767849718
sI2451
F13.48875172644177
sI2462
F14.992829123218044
sI2463
F14.992829123218044
sI2465
F10.936705773816142
sI2466
F9.6833245672794437
sI2467
F15.280511195669826
sI2468
F14.769685571903834
sI2470
F16.379123484337935
sI2473
F11.960282876541337
sI2474
F15.68597630377799
sI2476
F14.433213335282622
sI2477
F14.769685571903834
sI2479
F13.740066154722676
sI2480
F16.379123484337935
sI2481
F12.427879765756508
sI2482
F13.160247659469734
sI2483
F14.58736401510988
sI2484
F11.725163134180411
sI2485
F13.894216834549935
sI2486
F10.626550845512302
sI2487
F11.202973751764105
sI2488
F12.336072216503384
sI2489
F9.1306194119673254
sI2493
F15.280511195669826
sI2497
F13.814174126876399
sI2498
F11.503926161136784
sI2500
F13.606534762098153
sI2501
F12.371790299105465
sI2502
F13.01182765435146
sI2503
F13.434684505171495
sI2507
F12.18946874231151
sI2508
F10.709242561357415
sI2509
F13.545910140281718
sI2512
F16.379123484337935
sI2513
F12.528975882627876
sI2514
F14.299681942658099
sI2515
F10.385162057031366
sI2516
F10.252254300223751
sI2517
F10.252254300223751
sI2518
F12.882615922871455
sI2520
F16.379123484337935
sI2522
F14.992829123218044
sI2523
F13.545910140281718
sI2524
F12.768205571693711
sI2525
F16.379123484337935
sI2526
F14.181898907001715
sI2527
F15.68597630377799
sI2534
F14.07653839134389
sI2537
F10.610802488544163
sI2538
F13.121026946316453
sI2540
F11.634191355974686
sI2541
F14.769685571903834
sI2546
F16.379123484337935
sI2547
F14.299681942658099
sI2548
F14.58736401510988
sI2550
F12.852762959721774
sI2551
F16.379123484337935
sI2553
F15.68597630377799
sI2554
F14.433213335282622
sI2555
F15.68597630377799
sI2556
F16.379123484337935
sI2557
F11.243325047287673
sI2558
F14.299681942658099
sI2559
F13.48875172644177
sI2561
F10.553123376957485
sI2562
F12.39013943777366
sI2563
F15.68597630377799
sI2567
F14.07653839134389
sI2568
F10.949777855383495
sI2572
F13.383391210783945
sI2573
F12.102457365321879
sI2574
F11.279257056513737
sI2575
F15.280511195669826
sI2576
F11.794156005667363
sI2577
F11.972404237073683
sI2578
F13.083286618333606
sI2579
F12.882615922871455
sI2580
F14.07653839134389
sI2583
F14.992829123218044
sI2584
F15.68597630377799
sI2585
F16.379123484337935
sI2586
F16.379123484337935
sI2588
F15.68597630377799
sI2589
F13.894216834549935
sI2590
F13.288081030979619
sI2591
F14.992829123218044
sI2592
F14.769685571903834
sI2593
F14.769685571903834
sI2595
F14.992829123218044
sI2597
F13.20106965398999
sI2599
F14.433213335282622
sI2600
F15.68597630377799
sI2601
F13.121026946316453
sI2602
F14.769685571903834
sI2603
F12.336072216503384
sI2605
F13.671073283235724
sI2606
F13.740066154722676
sI2607
F14.299681942658099
sI2609
F14.299681942658099
sI2615
F13.740066154722676
sI2618
F16.379123484337935
sI2623
F13.160247659469734
sI2624
F15.280511195669826
sI2625
F14.433213335282622
sI2626
F15.68597630377799
sI2627
F14.07653839134389
sI2628
F15.68597630377799
sI2629
F15.68597630377799
sI2630
F16.379123484337935
sI2631
F16.379123484337935
sI2633
F14.769685571903834
sI2635
F6.9423649285138849
sI2636
F10.74791170251657
sI2642
F13.383391210783945
sI2651
F12.741537324611549
sI2652
F14.769685571903834
sI2653
F13.434684505171495
sI2659
F15.68597630377799
sI2660
F15.68597630377799
sI2661
F6.9642924495467522
sI2667
F14.769685571903834
sI2669
F14.769685571903834
sI2670
F16.379123484337935
sI2671
F14.07653839134389
sI2672
F13.334601046614512
sI2673
F16.379123484337935
sI2681
F15.280511195669826
sI2682
F14.58736401510988
sI2683
F13.981228211539564
sI2684
F14.769685571903834
sI2685
F14.433213335282622
sI2686
F13.671073283235724
sI2689
F15.280511195669826
sI2690
F13.20106965398999
sI2691
F15.68597630377799
sI2693
F14.992829123218044
sI2699
F15.68597630377799
sI2700
F11.148014867483349
sI2710
F12.823775422848522
sI2711
F12.715561838208288
sI2712
F16.379123484337935
sI2717
F14.992829123218044
sI2718
F14.58736401510988
sI2720
F14.07653839134389
sI2722
F14.992829123218044
sI2723
F13.606534762098153
sI2728
F14.181898907001715
sI2730
F11.267135695981391
sI2732
F14.992829123218044
sI2738
F16.379123484337935
sI2739
F16.379123484337935
sI2747
F13.20106965398999
sI2748
F11.459142558509809
sI2751
F11.936472227847618
sI2752
F12.55048208784884
sI2753
F15.68597630377799
sI2755
F13.383391210783945
sI2759
F12.427879765756508
sI2760
F16.379123484337935
sI2761
F16.379123484337935
sI2767
F15.68597630377799
sI2768
F12.641453866054567
sI2769
F14.299681942658099
sI2772
F12.467100478909789
sI2774
F14.769685571903834
sI2775
F15.68597630377799
sI2776
F12.823775422848522
sI2777
F14.433213335282622
sI2778
F15.280511195669826
sI2779
F15.280511195669826
sI2784
F15.68597630377799
sI2785
F15.68597630377799
sI2786
F14.181898907001715
sI2787
F14.433213335282622
sI2788
F13.894216834549935
sI2791
F12.852762959721774
sI2792
F14.433213335282622
sI2795
F12.641453866054567
sI2802
F14.58736401510988
sI2803
F12.427879765756508
sI2804
F12.768205571693711
sI2805
F14.299681942658099
sI2806
F15.280511195669826
sI2807
F14.992829123218044
sI2808
F16.379123484337935
sI2809
F14.433213335282622
sI2810
F13.083286618333606
sI2811
F15.68597630377799
sI2812
F12.882615922871455
sI2813
F14.181898907001715
sI2814
F13.121026946316453
sI2815
F13.814174126876399
sI2816
F15.280511195669826
sI2817
F12.913387581538208
sI2818
F13.606534762098153
sI2819
F13.606534762098153
sI2820
F15.68597630377799
sI2821
F15.68597630377799
sI2822
F14.58736401510988
sI2824
F12.301586040432216
sI2825
F14.299681942658099
sI2826
F11.616949549540179
sI2827
F11.15876765925961
sI2828
F14.58736401510988
sI2829
F13.434684505171495
sI2830
F16.379123484337935
sI2832
F11.303949669104108
sI2833
F11.303949669104108
sI2835
F10.377708606376785
sI2836
F12.301586040432216
sI2837
F12.301586040432216
sI2838
F14.181898907001715
sI2839
F9.5471699187720791
sI2840
F12.102457365321879
sI2841
F12.061635370801625
sI2848
F14.992829123218044
sI2849
F15.280511195669826
sI2863
F15.280511195669826
sI2865
F13.671073283235724
sI2917
F14.992829123218044
sI2923
F12.336072216503384
sI2926
F13.740066154722676
sI2928
F14.299681942658099
sI2967
F11.83582870206793
sI2968
F13.288081030979619
sI2969
F14.433213335282622
sI2970
F14.299681942658099
sI2971
F15.280511195669826
sI2972
F11.243325047287673
sI2973
F14.07653839134389
sI2974
F12.528975882627876
sI2975
F12.741537324611549
sI2976
F13.046918974162731
sI2977
F12.741537324611549
sI2978
F12.55048208784884
sI2979
F15.280511195669826
sI2980
F14.58736401510988
sI2981
F14.299681942658099
sI2982
F12.741537324611549
sI2983
F12.251989099292844
sI2984
F13.20106965398999
sI2985
F11.402389741917361
sI2986
F11.402389741917361
sI2987
F12.145016979740676
sI2988
F15.280511195669826
sI2989
F12.130628242288577
sI2990
F11.924776188084428
sI2991
F13.981228211539564
sI2992
F13.083286618333606
sI2993
F16.379123484337935
sI2994
F12.977926102675779
sI2995
F16.379123484337935
sI2996
F12.174430864946968
sI2997
F12.174430864946968
sI2998
F15.68597630377799
sI2999
F15.280511195669826
sI3000
F13.434684505171495
sI3001
F13.20106965398999
sI3003
F14.181898907001715
sI3004
F14.433213335282622
sI3015
F12.823775422848522
sI3016
F12.823775422848522
sI3018
F14.58736401510988
sI3019
F13.01182765435146
sI3020
F13.48875172644177
sI3021
F13.981228211539564
sI3022
F14.769685571903834
sI3023
F14.433213335282622
sI3024
F14.433213335282622
sI3026
F14.769685571903834
sI3027
F15.68597630377799
sI3034
F12.977926102675779
sI3036
F12.795604545881824
sI3037
F12.408831570785813
sI3038
F12.301586040432216
sI3039
F14.992829123218044
sI3040
F13.160247659469734
sI3041
F14.992829123218044
sI3042
F13.606534762098153
sI3043
F12.301586040432216
sI3045
F13.981228211539564
sI3046
F14.992829123218044
sI3047
F14.769685571903834
sI3048
F12.284778922115834
sI3049
F15.68597630377799
sI3050
F12.467100478909789
sI3051
F14.58736401510988
sI3052
F13.545910140281718
sI3054
F16.379123484337935
sI3058
F14.433213335282622
sI3059
F13.740066154722676
sI3060
F14.299681942658099
sI3061
F11.542841577386456
sI3062
F11.868263977821085
sI3063
F13.243629268408785
sI3064
F11.948306685494622
sI3065
F9.8209256815256669
sI3066
F15.68597630377799
sI3068
F11.566939128965517
sI3069
F15.68597630377799
sI3070
F15.68597630377799
sI3071
F16.379123484337935
sI3079
F15.68597630377799
sI3080
F15.280511195669826
sI3081
F15.68597630377799
sI3086
F13.814174126876399
sI3087
F12.336072216503384
sI3089
F14.58736401510988
sI3090
F13.894216834549935
sI3092
F15.280511195669826
sI3095
F13.740066154722676
sI3096
F12.741537324611549
sI3106
F16.379123484337935
sI3110
F11.38191121057382
sI3111
F11.38191121057382
sI3114
F14.992829123218044
sI3115
F16.379123484337935
sI3117
F12.022414657648342
sI3118
F11.984674329665497
sI3119
F14.433213335282622
sI3120
F15.68597630377799
sI3121
F14.07653839134389
sI3122
F13.671073283235724
sI3123
F13.981228211539564
sI3130
F15.68597630377799
sI3147
F12.336072216503384
sI3151
F14.58736401510988
sI3152
F14.58736401510988
sI3155
F13.545910140281718
sI3160
F12.022414657648342
sI3161
F14.07653839134389
sI3162
F11.984674329665497
sI3163
F12.690244030223999
sI3164
F14.992829123218044
sI3165
F14.992829123218044
sI3166
F14.992829123218044
sI3168
F14.07653839134389
sI3169
F13.334601046614512
sI3170
F14.769685571903834
sI3171
F15.280511195669826
sI3172
F12.130628242288577
sI3173
F13.545910140281718
sI3175
F16.379123484337935
sI3178
F15.280511195669826
sI3179
F14.769685571903834
sI3180
F12.572460994567615
sI3181
F15.68597630377799
sI3182
F14.181898907001715
sI3183
F11.857334907288894
sI3184
F15.68597630377799
sI3185
F14.181898907001715
sI3186
F14.181898907001715
sI3188
F14.58736401510988
sI3189
F14.769685571903834
sI3190
F15.280511195669826
sI3194
F12.102457365321879
sI3195
F14.58736401510988
sI3196
F15.68597630377799
sI3198
F16.379123484337935
sI3199
F12.795604545881824
sI3200
F13.48875172644177
sI3201
F14.58736401510988
sI3202
F12.823775422848522
sI3203
F12.528975882627876
sI3209
F13.383391210783945
sI3214
F13.334601046614512
sI3217
F13.288081030979619
sI3221
F12.336072216503384
sI3222
F13.243629268408785
sI3223
F10.462921421730499
sI3224
F12.301586040432216
sI3225
F13.671073283235724
sI3226
F13.01182765435146
sI3227
F14.433213335282622
sI3229
F16.379123484337935
sI3230
F13.981228211539564
sI3232
F13.046918974162731
sI3233
F13.981228211539564
sI3234
F14.299681942658099
sI3235
F12.487303186227308
sI3236
F15.280511195669826
sI3237
F15.280511195669826
sI3238
F15.280511195669826
sI3240
F16.379123484337935
sI3247
F13.083286618333606
sI3250
F10.178614310295245
sI3251
F13.046918974162731
sI3254
F13.606534762098153
sI3256
F14.433213335282622
sI3258
F12.882615922871455
sI3259
F12.487303186227308
sI3262
F12.977926102675779
sI3265
F16.379123484337935
sI3272
F14.769685571903834
sI3275
F13.160247659469734
sI3276
F16.379123484337935
sI3277
F14.181898907001715
sI3278
F11.936472227847618
sI3279
F13.545910140281718
sI3281
F16.379123484337935
sI3282
F11.924776188084428
sI3284
F14.992829123218044
sI3299
F16.379123484337935
sI3304
F14.58736401510988
sI3305
F15.68597630377799
sI3306
F15.68597630377799
sI3307
F15.68597630377799
sI3308
F15.68597630377799
sI3309
F16.379123484337935
sI3310
F15.68597630377799
sI3318
F16.379123484337935
sI3319
F15.68597630377799
sI3327
F14.769685571903834
sI3328
F13.814174126876399
sI3329
F13.545910140281718
sI3330
F15.68597630377799
sI3331
F15.68597630377799
sI3332
F13.894216834549935
sI3335
F14.07653839134389
sI3343
F15.280511195669826
sI3360
F14.992829123218044
sI3367
F14.433213335282622
sI3368
F16.379123484337935
sI3372
F16.379123484337935
sI3374
F16.379123484337935
sI3375
F14.769685571903834
sI3377
F16.379123484337935
sI3379
F15.68597630377799
sI3394
F13.20106965398999
sI3397
F11.395516862629599
sI3400
F16.379123484337935
sI3403
F14.299681942658099
sI3408
F16.379123484337935
sI3411
F14.433213335282622
sI3428
F13.671073283235724
sI3430
F15.280511195669826
sI3431
F12.741537324611549
sI3433
F11.279257056513737
sI3434
F14.992829123218044
sI3435
F14.299681942658099
sI3436
F15.68597630377799
sI3440
F14.58736401510988
sI3442
F16.379123484337935
sI3444
F14.58736401510988
sI3445
F14.58736401510988
sI3456
F15.280511195669826
sI3468
F13.20106965398999
sI3469
F13.383391210783945
sI3471
F14.299681942658099
sI3473
F15.280511195669826
sI3477
F16.379123484337935
sI3478
F15.280511195669826
sI3487
F13.545910140281718
sI3491
F15.280511195669826
sI3493
F14.58736401510988
sI3494
F14.58736401510988
sI3500
F16.379123484337935
sI3503
F14.181898907001715
sI3506
F16.379123484337935
sI3516
F12.284778922115834
sI3521
F15.68597630377799
sI3522
F14.992829123218044
sI3523
F15.280511195669826
sI3525
F13.740066154722676
sI3529
F15.68597630377799
sI3530
F16.379123484337935
sI3533
F14.992829123218044
sI3535
F14.58736401510988
sI3536
F12.301586040432216
sI3537
F12.204736214442297
sI3539
F12.690244030223999
sI3553
F16.379123484337935
sI3554
F13.083286618333606
sI3555
F13.894216834549935
sI3557
F13.606534762098153
sI3559
F14.181898907001715
sI3560
F11.696992257213715
sI3563
F14.58736401510988
sI3575
F16.379123484337935
sI3576
F15.280511195669826
sI3591
F15.68597630377799
sI3593
F14.299681942658099
sI3600
F15.68597630377799
sI3601
F13.01182765435146
sI3604
F15.280511195669826
sI3609
F15.68597630377799
sI3612
F15.68597630377799
sI3618
F15.280511195669826
sI3635
F16.379123484337935
sI3637
F15.280511195669826
sI3642
F15.68597630377799
sI3644
F15.68597630377799
sI3650
F16.379123484337935
sI3651
F11.297719119353472
sI3658
F14.299681942658099
sI3661
F13.383391210783945
sI3665
F13.20106965398999
sI3666
F13.740066154722676
sI3667
F14.433213335282622
sI3668
F16.379123484337935
sI3669
F16.379123484337935
sI3670
F13.383391210783945
sI3673
F16.379123484337935
sI3674
F13.243629268408785
sI3676
F15.68597630377799
sI3678
F16.379123484337935
sI3679
F15.68597630377799
sI3680
F14.769685571903834
sI3681
F14.769685571903834
sI3686
F14.58736401510988
sI3687
F13.894216834549935
sI3689
F14.769685571903834
sI3698
F15.68597630377799
sI3699
F15.68597630377799
sI3700
F15.280511195669826
sI3701
F15.280511195669826
sI3702
F15.68597630377799
sI3703
F15.68597630377799
sI3704
F15.68597630377799
sI3705
F15.68597630377799
sI3706
F15.68597630377799
sI3707
F16.379123484337935
sI3710
F16.379123484337935
sI3712
F15.280511195669826
sI3713
F14.58736401510988
sI3714
F16.379123484337935
sI3715
F14.07653839134389
sI3720
F13.545910140281718
sI3721
F13.545910140281718
sI3722
F13.814174126876399
sI3724
F13.334601046614512
sI3726
F15.280511195669826
sI3727
F13.981228211539564
sI3729
F14.992829123218044
sI3730
F14.181898907001715
sI3733
F14.433213335282622
sI3734
F15.280511195669826
sI3735
F15.280511195669826
sI3744
F15.68597630377799
sI3745
F13.981228211539564
sI3751
F14.992829123218044
sI3758
F13.01182765435146
sI3764
F13.814174126876399
sI3767
F13.288081030979619
sI3769
F14.433213335282622
sI3771
F16.379123484337935
sI3775
F15.68597630377799
sI3777
F14.299681942658099
sI3780
F14.769685571903834
sI3784
F13.434684505171495
s.