(dp1
I0
F13.224884766553981
sI1
F9.264071596956402
sI2
F13.918031947113926
sI3
F10.782537731184776
sI4
F7.5464200998820692
sI5
F11.278974617498667
sI6
F6.8008264439495818
sI7
F9.1818334987194294
sI8
F6.9865601415144729
sI9
F12.819419658445817
sI10
F6.2712005556834436
sI11
F10.391671422497764
sI12
F5.6879876369878106
sI13
F12.531737585994035
sI14
F2.4805307047905383
sI15
F10.782537731184776
sI16
F11.615446854119879
sI17
F7.4931629232085379
sI18
F7.9752325719872248
sI19
F12.308594034679825
sI20
F0.88000933414342153
sI21
F10.362683885624511
sI22
F10.362683885624511
sI23
F12.531737585994035
sI24
F8.3728545026343628
sI25
F8.4005790506492186
sI26
F4.178417181303292
sI27
F9.6553520700726096
sI28
F4.403594961417868
sI29
F6.6256947709400489
sI30
F6.8312940126033483
sI31
F8.6197145805658888
sI32
F3.3550574155104878
sI33
F6.17693285707856
sI34
F11.433125297325926
sI35
F8.9907782619567218
sI36
F9.5235827924414878
sI37
F8.8941514262676495
sI38
F8.39657102925168
sI39
F9.3330644684433537
sI40
F5.321473200316948
sI41
F13.224884766553981
sI42
F13.918031947113926
sI43
F10.484044742628779
sI44
F10.51683456545177
sI45
F10.873509509390503
sI46
F8.8875940257214907
sI47
F6.9846089213832112
sI48
F10.307114034469702
sI49
F7.220997699447441
sI50
F13.224884766553981
sI51
F5.4350162074992747
sI52
F13.224884766553981
sI53
F6.4432597647160552
sI54
F8.6762849320542834
sI55
F6.1808518692792953
sI56
F6.0225959401709606
sI57
F2.0930001257813924
sI58
F9.8236873848918247
sI59
F1.6111054255887969
sI60
F7.3154440549245896
sI61
F7.276849777373334
sI62
F6.019249590143616
sI63
F3.6451210578168989
sI64
F7.6099335056043955
sI65
F3.4869501532365699
sI66
F4.3246765958671709
sI67
F3.8134828664097906
sI68
F4.1191274347702374
sI69
F12.308594034679825
sI70
F3.8240480095958334
sI71
F9.2833029588842901
sI72
F5.911331101673559
sI73
F7.5776726433861734
sI74
F6.8363233610083505
sI75
F7.5095031560544276
sI76
F11.35308258965239
sI77
F6.353793471943435
sI78
F9.5613231204243334
sI79
F9.8926802563787763
sI80
F4.5362624595102119
sI81
F11.972121798058613
sI82
F9.6695367050645675
sI83
F8.9835580139832345
sI84
F7.8945843541528928
sI85
F8.8304356118815424
sI86
F12.819419658445817
sI87
F12.126272477885871
sI88
F3.8678500154269941
sI89
F7.1541470385514909
sI90
F5.5035361539360306
sI91
F11.83859040543409
sI92
F6.9305417001129355
sI93
F11.972121798058613
sI94
F7.2422087254790775
sI96
F12.308594034679825
sI97
F5.2971997209382025
sI98
F13.224884766553981
sI99
F5.7287874213780245
sI100
F10.307114034469702
sI101
F8.0487350339801509
sI102
F11.520136674315555
sI103
F9.3433209686105432
sI104
F11.83859040543409
sI105
F9.5742265252602419
sI106
F11.084818603057709
sI107
F12.126272477885871
sI108
F11.972121798058613
sI109
F10.28044578738754
sI110
F12.819419658445817
sI111
F11.35308258965239
sI112
F11.615446854119879
sI113
F6.9720179560146986
sI114
F11.027660189217761
sI115
F11.027660189217761
sI116
F8.9835580139832345
sI117
F8.2761248761758122
sI119
F9.5235827924414878
sI120
F10.133842313195665
sI121
F13.918031947113926
sI122
F7.6546336845223024
sI123
F11.83859040543409
sI124
F8.1465908239839102
sI125
F11.433125297325926
sI126
F7.8358130367374796
sI127
F6.7610755824982895
sI128
F4.882283085869787
sI129
F10.334513008657815
sI130
F8.1814596496347338
sI131
F9.2175515813215103
sI132
F8.5063858952588856
sI133
F11.35308258965239
sI134
F8.3728545026343628
sI135
F9.5360053124400448
sI136
F12.819419658445817
sI137
F3.5847769939466683
sI138
F10.782537731184776
sI139
F7.6489356634076646
sI140
F11.972121798058613
sI141
F13.918031947113926
sI142
F6.6304713068042025
sI145
F9.7283772050875008
sI146
F11.972121798058613
sI147
F8.0515638901806295
sI148
F8.6710078749534389
sI149
F9.7908975620688334
sI150
F12.819419658445817
sI151
F12.819419658445817
sI152
F11.278974617498667
sI153
F9.1558580123161697
sI154
F7.9991380928407789
sI155
F13.918031947113926
sI156
F13.224884766553981
sI157
F8.8875940257214907
sI158
F9.2452031126520193
sI159
F8.1750287593044426
sI160
F9.1818334987194294
sI161
F9.3029114302726654
sI163
F2.6481466651723635
sI164
F3.2678090548479237
sI167
F10.782537731184776
sI168
F8.1403796238912687
sI169
F12.126272477885871
sI170
F9.2736410479725535
sI171
F11.35308258965239
sI172
F8.2344521797752446
sI174
F12.531737585994035
sI175
F11.35308258965239
sI176
F10.307114034469702
sI177
F12.308594034679825
sI178
F10.51683456545177
sI179
F5.990707586804132
sI180
F8.8810793447002965
sI181
F13.224884766553981
sI182
F10.133842313195665
sI183
F7.2062915520577455
sI184
F12.308594034679825
sI185
F10.334513008657815
sI186
F12.126272477885871
sI187
F11.145443224874144
sI188
F13.918031947113926
sI189
F10.873509509390503
sI190
F3.7460451415427909
sI191
F7.0264060500616727
sI192
F10.585827436938722
sI193
F12.308594034679825
sI194
F13.918031947113926
sI195
F12.531737585994035
sI196
F11.027660189217761
sI199
F9.8926802563787763
sI200
F9.2359007199897061
sI201
F9.2545928530018582
sI203
F13.224884766553981
sI204
F11.615446854119879
sI205
F11.278974617498667
sI206
F13.224884766553981
sI207
F7.5345253122299205
sI208
F13.224884766553981
sI210
F7.3277308989172401
sI212
F7.6816623569102216
sI214
F4.0670489485599468
sI215
F4.0666274744480226
sI216
F4.9133636455399481
sI217
F4.0695287029105573
sI218
F5.5603035303487154
sI219
F5.5493387640161327
sI220
F6.29978084923723
sI221
F6.1541606592937033
sI222
F8.2904108334232891
sI223
F7.4227663911769177
sI224
F8.1814596496347338
sI225
F7.6357652002179197
sI226
F4.6998226167590476
sI227
F3.9828035087937352
sI228
F6.2702459016729932
sI229
F9.0582195427522532
sI230
F11.433125297325926
sI231
F11.35308258965239
sI233
F11.433125297325926
sI234
F6.1499215685879367
sI235
F5.0901239841353352
sI236
F-0
sI237
F5.12214697508404
sI238
F8.5756976951491151
sI239
F10.026211649003299
sI240
F11.35308258965239
sI241
F9.3536837556460899
sI242
F8.4499718059787945
sI243
F8.2796772777801806
sI244
F5.0266579376292899
sI245
F8.1814596496347338
sI246
F10.026211649003299
sI247
F11.615446854119879
sI248
F9.1389084540023973
sI249
F13.224884766553981
sI250
F12.819419658445817
sI251
F12.819419658445817
sI254
F11.972121798058613
sI255
F10.622195081109597
sI256
F12.126272477885871
sI257
F10.659935409092444
sI258
F11.433125297325926
sI259
F10.622195081109597
sI260
F11.278974617498667
sI261
F11.35308258965239
sI262
F12.126272477885871
sI264
F10.922299673559936
sI265
F11.145443224874144
sI266
F12.126272477885871
sI267
F9.5360053124400448
sI268
F13.224884766553981
sI269
F10.659935409092444
sI270
F12.819419658445817
sI272
F10.254470300984279
sI273
F5.303167728524242
sI274
F12.819419658445817
sI278
F10.585827436938722
sI284
F11.520136674315555
sI286
F6.9729808833880922
sI289
F8.0402961653342864
sI292
F12.126272477885871
sI293
F9.1473473226482618
sI294
F7.6062971379610111
sI295
F6.2168317662564796
sI296
F7.7277165412607784
sI297
F7.217300837566115
sI303
F13.918031947113926
sI304
F13.918031947113926
sI306
F13.224884766553981
sI307
F11.83859040543409
sI308
F12.308594034679825
sI309
F3.9820288029011177
sI310
F12.308594034679825
sI311
F12.819419658445817
sI313
F10.046830936206035
sI314
F6.6014837699309501
sI315
F6.7349202453706445
sI316
F6.4175024617186311
sI317
F7.4212569569280635
sI318
F6.9739447388843985
sI319
F10.973592967947486
sI320
F10.659935409092444
sI321
F13.918031947113926
sI322
F7.3813403495226204
sI324
F13.224884766553981
sI325
F13.918031947113926
sI326
F13.224884766553981
sI327
F13.224884766553981
sI328
F10.307114034469702
sI329
F12.819419658445817
sI330
F12.308594034679825
sI331
F11.084818603057709
sI332
F13.918031947113926
sI333
F13.224884766553981
sI334
F11.720807369777706
sI335
F8.2620401362940736
sI336
F8.4584464329697671
sI337
F7.959607254084144
sI338
F8.8000381346971714
sI339
F7.7134741845452357
sI340
F7.3195229184994099
sI341
F5.4206333830258675
sI342
F8.6605365750861445
sI343
F8.3085601519289654
sI344
F6.24993823803152
sI345
F8.34208284396761
sI346
F8.0572457236480606
sI347
F6.6101591663502193
sI348
F12.308594034679825
sI349
F11.83859040543409
sI350
F11.35308258965239
sI351
F11.027660189217761
sI352
F11.720807369777706
sI353
F12.531737585994035
sI354
F11.615446854119879
sI355
F10.82698949375561
sI358
F13.224884766553981
sI359
F11.972121798058613
sI361
F13.224884766553981
sI362
F13.224884766553981
sI363
F13.224884766553981
sI368
F11.972121798058613
sI370
F11.972121798058613
sI375
F13.918031947113926
sI377
F13.224884766553981
sI378
F11.027660189217761
sI380
F7.4395223049053563
sI381
F10.421524385647446
sI382
F10.28044578738754
sI383
F10.739978116765981
sI384
F10.873509509390503
sI385
F11.145443224874144
sI386
F13.224884766553981
sI388
F10.585827436938722
sI389
F11.972121798058613
sI390
F10.873509509390503
sI392
F11.520136674315555
sI393
F12.819419658445817
sI394
F11.027660189217761
sI395
F11.084818603057709
sI396
F13.224884766553981
sI397
F13.224884766553981
sI398
F13.224884766553981
sI399
F13.224884766553981
sI402
F9.264071596956402
sI403
F7.4565637707602086
sI404
F11.209981746011715
sI415
F9.0897182098116254
sI416
F10.046830936206035
sI417
F10.22915249299999
sI418
F10.922299673559936
sI419
F12.126272477885871
sI420
F11.278974617498667
sI421
F12.126272477885871
sI422
F7.5345253122299205
sI423
F7.2742422139662537
sI424
F12.531737585994035
sI426
F11.145443224874144
sI427
F4.0529734211975796
sI428
F11.615446854119879
sI429
F8.2904108334232891
sI430
F9.3229120969793353
sI431
F5.0465266009481446
sI432
F4.2963106666002746
sI434
F5.839343717884053
sI435
F13.918031947113926
sI436
F7.2755451457466691
sI437
F10.922299673559936
sI438
F7.9884428037240314
sI439
F6.014805138383192
sI440
F11.615446854119879
sI441
F11.972121798058613
sI443
F6.9305417001129355
sI444
F5.6866559015399565
sI445
F13.918031947113926
sI446
F3.8482675349526989
sI447
F13.224884766553981
sI448
F8.8060441587573823
sI449
F11.145443224874144
sI450
F9.2359007199897061
sI451
F8.3496874433528294
sI452
F8.9980510212858
sI453
F8.323320567512086
sI454
F6.5830500682421116
sI455
F10.254470300984279
sI456
F6.6752340243201704
sI457
F12.531737585994035
sI458
F11.615446854119879
sI459
F10.421524385647446
sI460
F11.972121798058613
sI461
F13.918031947113926
sI462
F12.308594034679825
sI463
F10.51683456545177
sI464
F12.126272477885871
sI465
F7.6954556790425572
sI466
F8.9140856411684659
sI467
F4.8423664784643448
sI468
F11.027660189217761
sI469
F7.9018747874155721
sI470
F7.9467701073234629
sI471
F7.9265674000059434
sI472
F11.83859040543409
sI473
F9.4521238284593423
sI474
F3.5951106372422377
sI475
F12.126272477885871
sI476
F8.9692720567357576
sI477
F10.782537731184776
sI478
F8.599911953269709
sI479
F13.918031947113926
sI480
F11.35308258965239
sI481
F12.308594034679825
sI483
F12.819419658445817
sI484
F9.4753806906236093
sI485
F11.145443224874144
sI486
F6.700588515417393
sI487
F8.3535115397912332
sI488
F9.6139668539097567
sI489
F8.7140252600371308
sI490
F11.972121798058613
sI492
F12.531737585994035
sI494
F6.0509264467971864
sI495
F5.8511966326965892
sI496
F11.278974617498667
sI497
F8.7418822145400963
sI498
F9.4521238284593423
sI499
F5.5850020073710143
sI500
F12.531737585994035
sI501
F11.83859040543409
sI502
F12.308594034679825
sI503
F8.3196099881155519
sI504
F10.922299673559936
sI505
F8.493081929632524
sI506
F10.22915249299999
sI507
F11.720807369777706
sI508
F9.9862063143895998
sI509
F13.918031947113926
sI510
F11.720807369777706
sI511
F11.35308258965239
sI512
F9.4521238284593423
sI513
F9.7908975620688334
sI514
F8.868175939864388
sI515
F9.0738448606553348
sI516
F6.3231475598974063
sI517
F11.615446854119879
sI518
F7.3570012812173529
sI519
F13.918031947113926
sI520
F7.0563206066331956
sI521
F9.8071580829406138
sI522
F9.2930591338296544
sI523
F13.224884766553981
sI524
F9.5113126998496735
sI525
F8.955187316854019
sI526
F5.3570132761576588
sI527
F7.8132387146989402
sI528
F8.0687071671670658
sI530
F9.2085017458015912
sI531
F12.531737585994035
sI532
F12.531737585994035
sI533
F10.133842313195665
sI535
F9.7748972207223925
sI536
F10.782537731184776
sI537
F9.4521238284593423
sI538
F10.973592967947486
sI539
F12.126272477885871
sI540
F11.209981746011715
sI544
F11.972121798058613
sI545
F12.819419658445817
sI547
F10.51683456545177
sI551
F12.531737585994035
sI554
F13.918031947113926
sI555
F9.0127571686754955
sI556
F11.084818603057709
sI557
F9.0127571686754955
sI558
F12.819419658445817
sI559
F9.0504974966583429
sI560
F12.819419658445817
sI561
F10.307114034469702
sI563
F9.8236873848918247
sI565
F4.9526973733090873
sI566
F2.3203426289445481
sI567
F2.3293313290801385
sI568
F5.6541838157450197
sI569
F10.622195081109597
sI570
F11.720807369777706
sI571
F8.1559805643337491
sI572
F12.308594034679825
sI573
F7.5567294695409304
sI574
F13.224884766553981
sI575
F8.4843099435596869
sI576
F8.5709244163964566
sI577
F8.6976761220356007
sI578
F10.046830936206035
sI579
F8.9907782619567218
sI580
F8.0773902897405279
sI581
F7.5128034890830842
sI582
F4.309721148791839
sI583
F7.8021398216308917
sI584
F11.084818603057709
sI585
F11.027660189217761
sI586
F13.918031947113926
sI587
F11.35308258965239
sI589
F12.308594034679825
sI591
F12.819419658445817
sI592
F13.224884766553981
sI594
F10.51683456545177
sI595
F8.0861494698304099
sI597
F12.531737585994035
sI598
F7.4534436434239648
sI599
F12.531737585994035
sI600
F10.973592967947486
sI601
F10.699156122245725
sI602
F10.659935409092444
sI603
F12.126272477885871
sI605
F11.209981746011715
sI606
F13.224884766553981
sI607
F7.4318711581698365
sI608
F9.4293955773817864
sI609
F6.7673304895213988
sI610
F10.133842313195665
sI616
F13.224884766553981
sI617
F13.918031947113926
sI618
F9.3433209686105432
sI619
F9.7591488637542536
sI621
F12.126272477885871
sI622
F7.1739727608025783
sI623
F5.0832581329000446
sI624
F9.6553520700726096
sI625
F11.520136674315555
sI626
F5.4749159590940044
sI627
F4.4582566898694651
sI628
F7.0448681129014075
sI629
F8.5153545652416458
sI630
F8.323320567512086
sI631
F8.3085601519289654
sI632
F6.5547523601508875
sI633
F9.1140109023806684
sI634
F8.1403796238912687
sI635
F11.520136674315555
sI636
F13.918031947113926
sI638
F10.873509509390503
sI639
F6.8130664988440834
sI640
F8.323320567512086
sI641
F10.204459880409619
sI642
F8.062960024911499
sI643
F8.8120864732133448
sI644
F10.28044578738754
sI645
F5.9950459884027305
sI646
F7.5515614993824878
sI647
F10.973592967947486
sI648
F8.8000381346971714
sI649
F6.3897001804066784
sI650
F4.8574685004559708
sI651
F7.9290705302240623
sI652
F5.9233996356820997
sI653
F5.2252061870545301
sI654
F7.4137437735772798
sI655
F6.9023195266266963
sI656
F8.6553417582090404
sI657
F9.1558580123161697
sI658
F9.097750381508888
sI659
F6.5235388398948881
sI660
F6.5064756593027626
sI661
F7.3499540357019502
sI662
F7.3499540357019502
sI663
F3.6089792914693
sI664
F6.3470733639449159
sI665
F6.0644271340160891
sI666
F4.9497631363374719
sI667
F9.2930591338296544
sI668
F13.224884766553981
sI669
F6.8801259836667432
sI670
F9.9862063143895998
sI671
F10.585827436938722
sI672
F6.5804442035753299
sI673
F10.873509509390503
sI674
F7.4565637707602086
sI675
F11.278974617498667
sI676
F11.615446854119879
sI677
F10.659935409092444
sI678
F13.224884766553981
sI680
F10.739978116765981
sI681
F9.097750381508888
sI682
F13.918031947113926
sI683
F2.5292534748865796
sI684
F12.531737585994035
sI685
F5.5111001499552259
sI686
F11.720807369777706
sI687
F11.145443224874144
sI688
F10.484044742628779
sI689
F11.972121798058613
sI690
F10.922299673559936
sI691
F11.209981746011715
sI692
F10.00600894168578
sI693
F10.22915249299999
sI694
F9.0504974966583429
sI695
F9.6413658280978698
sI696
F9.6413658280978698
sI697
F7.5396057634623395
sI698
F11.615446854119879
sI699
F11.145443224874144
sI700
F11.520136674315555
sI701
F8.92759936033519
sI702
F11.35308258965239
sI703
F12.126272477885871
sI704
F11.084818603057709
sI705
F9.097750381508888
sI706
F10.739978116765981
sI707
F12.531737585994035
sI708
F8.9907782619567218
sI710
F11.278974617498667
sI711
F8.9007521102990008
sI712
F13.918031947113926
sI713
F8.9073966530176705
sI714
F11.084818603057709
sI715
F10.973592967947486
sI716
F7.0152892099553332
sI717
F11.615446854119879
sI718
F8.5709244163964566
sI719
F9.8926802563787763
sI720
F11.35308258965239
sI721
F13.918031947113926
sI722
F11.83859040543409
sI723
F8.9208196733498113
sI724
F10.922299673559936
sI725
F11.433125297325926
sI726
F12.308594034679825
sI727
F8.7647403526161476
sI728
F11.35308258965239
sI729
F8.9344253254055896
sI730
F10.782537731184776
sI731
F10.391671422497764
sI732
F11.433125297325926
sI733
F10.699156122245725
sI734
F7.6357652002179197
sI735
F10.873509509390503
sI736
F10.699156122245725
sI737
F10.180362328830558
sI738
F11.615446854119879
sI739
F8.338302121127704
sI740
F11.615446854119879
sI741
F9.9862063143895998
sI742
F9.4753806906236093
sI743
F10.699156122245725
sI744
F11.720807369777706
sI745
F12.308594034679825
sI746
F7.6209226271799908
sI747
F10.922299673559936
sI748
F10.922299673559936
sI749
F13.918031947113926
sI750
F10.622195081109597
sI751
F10.659935409092444
sI752
F10.873509509390503
sI753
F9.7133393277229594
sI754
F9.9862063143895998
sI755
F9.020192147163014
sI756
F10.28044578738754
sI757
F10.699156122245725
sI758
F6.7967794938693844
sI759
F10.873509509390503
sI760
F12.531737585994035
sI761
F9.6139668539097567
sI762
F9.9106987618814557
sI763
F9.4991913393173277
sI764
F7.6264628075556056
sI765
F7.3598341443016571
sI766
F10.046830936206035
sI767
F6.2015711469375709
sI768
F11.278974617498667
sI769
F10.622195081109597
sI770
F10.111369457343606
sI771
F6.4708635875138851
sI772
F9.8926802563787763
sI773
F8.5427535394297607
sI774
F8.1434804015695175
sI775
F8.7763683906112657
sI776
F11.145443224874144
sI777
F11.520136674315555
sI778
F5.6031997678293699
sI779
F6.8171800381698757
sI780
F12.126272477885871
sI781
F8.1159135717368631
sI782
F5.4608010968703713
sI783
F9.0582195427522532
sI784
F8.736248396821841
sI785
F6.5553866766961013
sI786
F8.736248396821841
sI787
F11.209981746011715
sI788
F12.126272477885871
sI789
F10.421524385647446
sI790
F11.720807369777706
sI791
F11.027660189217761
sI792
F8.1219741963485532
sI793
F10.067884345403867
sI794
F5.5869273990608868
sI795
F9.5113126998496735
sI796
F8.2868201652925606
sI797
F9.7283772050875008
sI798
F11.278974617498667
sI799
F11.35308258965239
sI800
F10.362683885624511
sI801
F11.433125297325926
sI802
F11.520136674315555
sI803
F8.9073966530176705
sI804
F7.983137751494338
sI805
F11.615446854119879
sI806
F11.972121798058613
sI807
F8.9140856411684659
sI808
F13.918031947113926
sI809
F8.9412982046933518
sI810
F11.720807369777706
sI811
F13.918031947113926
sI812
F9.0817500401624471
sI813
F11.278974617498667
sI814
F11.278974617498667
sI815
F7.9416810378159921
sI816
F8.6815899842839759
sI817
F10.22915249299999
sI818
F11.278974617498667
sI819
F9.8749806792793748
sI820
F7.2807739158294691
sI821
F6.3176296126135254
sI822
F10.922299673559936
sI823
F7.5741515129875951
sI824
F11.520136674315555
sI825
F11.720807369777706
sI826
F10.873509509390503
sI827
F6.6940071388280948
sI828
F8.3458779149361622
sI829
F8.2276724927898659
sI830
F11.615446854119879
sI831
F10.362683885624511
sI832
F11.972121798058613
sI833
F11.972121798058613
sI834
F9.5113126998496735
sI835
F7.9190953851672425
sI836
F10.391671422497764
sI837
F11.027660189217761
sI838
F10.739978116765981
sI839
F10.28044578738754
sI840
F13.224884766553981
sI841
F8.441568395182415
sI842
F10.046830936206035
sI843
F7.7631738530975083
sI844
F11.35308258965239
sI845
F10.922299673559936
sI846
F9.3029114302726654
sI847
F10.452296044314199
sI848
F11.209981746011715
sI849
F11.145443224874144
sI850
F10.782537731184776
sI851
F10.484044742628779
sI852
F10.51683456545177
sI853
F8.2516052590014937
sI854
F9.9862063143895998
sI855
F9.5742265252602419
sI856
F9.627572505965535
sI857
F11.027660189217761
sI858
F10.204459880409619
sI859
F9.2545928530018582
sI860
F8.7250750962237156
sI861
F8.5381345935734654
sI862
F9.6553520700726096
sI863
F9.020192147163014
sI864
F10.82698949375561
sI865
F9.9667882285324989
sI866
F11.520136674315555
sI867
F9.1305402043318793
sI868
F11.35308258965239
sI869
F8.9907782619567218
sI870
F9.6005438335776159
sI871
F12.308594034679825
sI872
F9.8926802563787763
sI873
F9.2930591338296544
sI874
F9.8926802563787763
sI875
F3.5826321164547852
sI876
F11.027660189217761
sI877
F11.084818603057709
sI878
F9.4293955773817864
sI879
F8.0715931720562022
sI880
F5.881782004981809
sI881
F6.0334554365176016
sI882
F6.020735474518041
sI883
F10.973592967947486
sI884
F10.82698949375561
sI885
F7.3712465363534019
sI886
F6.7736247667927865
sI887
F5.479665536243659
sI888
F8.9763895245046221
sI889
F8.9763895245046221
sI890
F11.209981746011715
sI891
F11.720807369777706
sI892
F8.6657585190672961
sI893
F8.0291539887810455
sI894
F9.8404945032082072
sI895
F7.5688929557341282
sI896
F10.782537731184776
sI897
F9.7133393277229594
sI898
F9.5485840946469036
sI899
F9.3854324539606697
sI900
F10.699156122245725
sI901
F10.699156122245725
sI902
F8.9763895245046221
sI904
F10.699156122245725
sI905
F11.520136674315555
sI906
F12.819419658445817
sI907
F9.3536837556460899
sI908
F12.308594034679825
sI909
F12.531737585994035
sI910
F8.4249705037733769
sI911
F7.1449515714583907
sI912
F10.421524385647446
sI913
F10.391671422497764
sI914
F10.22915249299999
sI915
F9.9290479005496515
sI916
F9.4753806906236093
sI917
F8.9007521102990008
sI918
F11.615446854119879
sI919
F10.089390550624831
sI920
F12.126272477885871
sI921
F9.2736410479725535
sI922
F12.126272477885871
sI923
F8.8810793447002965
sI924
F12.126272477885871
sI925
F10.452296044314199
sI926
F10.51683456545177
sI927
F6.5421497988989135
sI928
F11.720807369777706
sI929
F11.209981746011715
sI930
F9.2452031126520193
sI931
F10.873509509390503
sI932
F10.922299673559936
sI933
F4.6948740714271286
sI934
F11.615446854119879
sI935
F10.421524385647446
sI936
F8.8304356118815424
sI937
F11.520136674315555
sI938
F10.782537731184776
sI939
F11.084818603057709
sI940
F12.531737585994035
sI941
F7.1599374426861946
sI942
F9.5872986068275949
sI943
F9.9106987618814557
sI944
F10.739978116765981
sI945
F9.8404945032082072
sI946
F11.084818603057709
sI947
F10.421524385647446
sI948
F10.82698949375561
sI949
F9.8236873848918247
sI950
F11.35308258965239
sI951
F11.972121798058613
sI952
F10.739978116765981
sI953
F10.00600894168578
sI954
F10.922299673559936
sI955
F10.51683456545177
sI956
F12.308594034679825
sI957
F9.8749806792793748
sI958
F9.6139668539097567
sI959
F8.962204889512666
sI960
F13.224884766553981
sI961
F10.180362328830558
sI962
F10.550736117127451
sI963
F11.35308258965239
sI964
F11.209981746011715
sI965
F10.922299673559936
sI966
F11.520136674315555
sI967
F8.4974969478416398
sI968
F10.659935409092444
sI969
F11.520136674315555
sI970
F10.699156122245725
sI971
F13.918031947113926
sI973
F12.308594034679825
sI974
F11.972121798058613
sI975
F11.145443224874144
sI976
F13.918031947113926
sI977
F8.0153986137125592
sI979
F12.531737585994035
sI980
F10.180362328830558
sI981
F12.308594034679825
sI982
F11.83859040543409
sI983
F9.4293955773817864
sI984
F9.0428346239127748
sI985
F9.3229120969793353
sI986
F10.362683885624511
sI987
F10.82698949375561
sI988
F10.046830936206035
sI989
F11.084818603057709
sI990
F10.585827436938722
sI991
F9.6839254425166672
sI992
F7.7674291786676468
sI993
F11.433125297325926
sI994
F9.3747371648439213
sI995
F13.918031947113926
sI996
F11.145443224874144
sI997
F10.782537731184776
sI998
F12.531737585994035
sI999
F10.28044578738754
sI1000
F11.084818603057709
sI1001
F8.5709244163964566
sI1002
F10.307114034469702
sI1003
F7.2729409776082816
sI1004
F11.520136674315555
sI1005
F10.180362328830558
sI1006
F9.9106987618814557
sI1007
F10.82698949375561
sI1009
F9.4872151482706126
sI1010
F7.9991380928407789
sI1011
F7.1529929703333837
sI1012
F10.585827436938722
sI1013
F8.2042991416045563
sI1014
F9.2085017458015912
sI1015
F10.739978116765981
sI1016
F10.111369457343606
sI1017
F12.531737585994035
sI1019
F11.35308258965239
sI1020
F8.5198692455961726
sI1021
F9.9667882285324989
sI1022
F11.084818603057709
sI1023
F9.2736410479725535
sI1024
F12.531737585994035
sI1025
F11.972121798058613
sI1026
F10.22915249299999
sI1027
F10.659935409092444
sI1028
F10.699156122245725
sI1029
F8.0208780794771855
sI1030
F6.9797474630969658
sI1031
F7.9911059211435154
sI1032
F8.0208780794771855
sI1033
F11.83859040543409
sI1034
F12.126272477885871
sI1035
F11.83859040543409
sI1036
F9.1473473226482618
sI1037
F9.9106987618814557
sI1038
F10.026211649003299
sI1039
F9.0738448606553348
sI1040
F13.918031947113926
sI1041
F10.51683456545177
sI1042
F12.126272477885871
sI1043
F11.972121798058613
sI1044
F10.28044578738754
sI1045
F8.2904108334232891
sI1046
F9.2833029588842901
sI1047
F11.433125297325926
sI1048
F10.133842313195665
sI1049
F11.084818603057709
sI1050
F9.3854324539606697
sI1051
F9.6695367050645675
sI1052
F11.027660189217761
sI1053
F10.585827436938722
sI1054
F13.918031947113926
sI1055
F10.973592967947486
sI1056
F10.659935409092444
sI1057
F8.9140856411684659
sI1058
F11.278974617498667
sI1059
F11.278974617498667
sI1060
F11.433125297325926
sI1061
F9.7436446772182883
sI1062
F9.6553520700726096
sI1063
F9.0053770613778745
sI1064
F13.918031947113926
sI1066
F11.433125297325926
sI1067
F11.145443224874144
sI1068
F11.145443224874144
sI1069
F11.972121798058613
sI1070
F13.918031947113926
sI1071
F11.35308258965239
sI1072
F11.35308258965239
sI1074
F7.9647886128261414
sI1075
F11.720807369777706
sI1076
F10.026211649003299
sI1077
F10.699156122245725
sI1079
F10.82698949375561
sI1080
F11.83859040543409
sI1081
F10.550736117127451
sI1082
F9.7748972207223925
sI1083
F8.736248396821841
sI1085
F7.5161147503867403
sI1086
F11.027660189217761
sI1087
F11.027660189217761
sI1088
F4.8608427546319177
sI1089
F4.005237835257498
sI1090
F8.8060441587573823
sI1091
F4.4266565454077558
sI1092
F8.1944468451615453
sI1093
F6.9983480972665149
sI1094
F8.6097642497127218
sI1095
F9.8236873848918247
sI1096
F8.6348282183759366
sI1097
F9.8404945032082072
sI1098
F9.7748972207223925
sI1099
F7.217300837566115
sI1100
F7.2099478632608562
sI1101
F5.6493001149961879
sI1102
F5.1675072779959885
sI1103
F7.340170589392879
sI1104
F7.9570266074906524
sI1105
F7.1622630251296702
sI1106
F6.2807975583244531
sI1107
F6.1302350689327545
sI1108
F11.027660189217761
sI1109
F11.027660189217761
sI1110
F9.8236873848918247
sI1111
F9.8071580829406138
sI1112
F9.3641550555133843
sI1113
F10.391671422497764
sI1114
F12.126272477885871
sI1115
F10.421524385647446
sI1116
F11.615446854119879
sI1117
F11.615446854119879
sI1118
F10.133842313195665
sI1119
F10.067884345403867
sI1120
F9.7283772050875008
sI1121
F11.615446854119879
sI1122
F9.6839254425166672
sI1123
F8.2904108334232891
sI1124
F5.2493201080587788
sI1125
F12.126272477885871
sI1126
F10.782537731184776
sI1127
F10.782537731184776
sI1128
F10.782537731184776
sI1129
F10.28044578738754
sI1130
F9.8926802563787763
sI1131
F12.126272477885871
sI1132
F10.739978116765981
sI1133
F10.180362328830558
sI1134
F13.918031947113926
sI1135
F12.819419658445817
sI1136
F12.308594034679825
sI1137
F10.873509509390503
sI1138
F10.307114034469702
sI1139
F10.307114034469702
sI1140
F11.35308258965239
sI1141
F10.622195081109597
sI1142
F9.6839254425166672
sI1143
F5.6012428200424083
sI1144
F10.873509509390503
sI1145
F8.1944468451615453
sI1147
F9.0660016831943082
sI1148
F11.027660189217761
sI1149
F10.180362328830558
sI1150
F10.585827436938722
sI1151
F11.615446854119879
sI1152
F10.00600894168578
sI1153
F10.550736117127451
sI1154
F7.1002013756597755
sI1155
F11.615446854119879
sI1156
F9.8236873848918247
sI1157
F10.922299673559936
sI1158
F9.2175515813215103
sI1159
F11.972121798058613
sI1160
F8.3122298808179291
sI1161
F8.5244044007615649
sI1162
F7.3900740294913749
sI1163
F11.145443224874144
sI1164
F10.782537731184776
sI1165
F11.35308258965239
sI1166
F12.819419658445817
sI1167
F6.2373945195529901
sI1168
F10.111369457343606
sI1169
F9.8404945032082072
sI1170
F9.8404945032082072
sI1171
F10.699156122245725
sI1172
F12.308594034679825
sI1173
F10.484044742628779
sI1174
F9.8236873848918247
sI1175
F10.659935409092444
sI1176
F10.550736117127451
sI1177
F9.2266840648847825
sI1178
F11.145443224874144
sI1179
F10.873509509390503
sI1180
F11.615446854119879
sI1181
F10.254470300984279
sI1182
F10.22915249299999
sI1183
F9.7748972207223925
sI1184
F10.782537731184776
sI1185
F10.739978116765981
sI1186
F11.209981746011715
sI1187
F10.699156122245725
sI1188
F11.720807369777706
sI1189
F10.254470300984279
sI1190
F9.627572505965535
sI1191
F6.9865601415144729
sI1192
F10.782537731184776
sI1193
F8.0045289414756553
sI1194
F9.8926802563787763
sI1195
F10.421524385647446
sI1196
F10.82698949375561
sI1197
F10.699156122245725
sI1198
F10.307114034469702
sI1200
F7.6099335056043955
sI1201
F11.83859040543409
sI1202
F10.180362328830558
sI1203
F9.7283772050875008
sI1204
F10.739978116765981
sI1205
F10.739978116765981
sI1206
F11.027660189217761
sI1207
F12.126272477885871
sI1208
F12.819419658445817
sI1209
F9.5742265252602419
sI1210
F6.337842529169385
sI1211
F9.5485840946469036
sI1212
F12.531737585994035
sI1213
F13.224884766553981
sI1214
F10.82698949375561
sI1215
F8.9692720567357576
sI1216
F9.3128617611258342
sI1217
F8.39657102925168
sI1218
F10.452296044314199
sI1219
F12.308594034679825
sI1220
F10.28044578738754
sI1221
F12.126272477885871
sI1222
F11.972121798058613
sI1223
F10.922299673559936
sI1224
F11.972121798058613
sI1225
F11.520136674315555
sI1226
F11.520136674315555
sI1227
F11.520136674315555
sI1228
F7.5567294695409304
sI1229
F7.5567294695409304
sI1230
F7.7505154562255845
sI1231
F7.4472324433313242
sI1232
F11.615446854119879
sI1233
F12.531737585994035
sI1234
F12.126272477885871
sI1235
F11.433125297325926
sI1236
F11.145443224874144
sI1237
F11.433125297325926
sI1238
F11.720807369777706
sI1239
F9.7283772050875008
sI1240
F10.739978116765981
sI1241
F7.9699969579332794
sI1242
F11.972121798058613
sI1243
F10.973592967947486
sI1244
F10.782537731184776
sI1245
F9.7591488637542536
sI1246
F11.35308258965239
sI1247
F9.3641550555133843
sI1248
F13.224884766553981
sI1249
F11.615446854119879
sI1250
F10.739978116765981
sI1251
F10.180362328830558
sI1252
F8.9980510212858
sI1253
F7.7014258460290606
sI1254
F8.962204889512666
sI1255
F8.5614456724419128
sI1257
F9.2545928530018582
sI1258
F9.1818334987194294
sI1259
F9.264071596956402
sI1260
F8.6247271223894337
sI1261
F8.7418822145400963
sI1262
F12.308594034679825
sI1263
F10.739978116765981
sI1264
F10.133842313195665
sI1265
F9.6005438335776159
sI1267
F8.7532459731904115
sI1268
F12.126272477885871
sI1269
F9.6139668539097567
sI1270
F10.622195081109597
sI1271
F10.111369457343606
sI1272
F11.084818603057709
sI1273
F11.520136674315555
sI1274
F13.224884766553981
sI1275
F11.972121798058613
sI1276
F11.720807369777706
sI1277
F12.126272477885871
sI1278
F9.8236873848918247
sI1279
F11.972121798058613
sI1280
F11.35308258965239
sI1281
F10.362683885624511
sI1282
F12.126272477885871
sI1283
F11.720807369777706
sI1284
F10.973592967947486
sI1285
F11.209981746011715
sI1286
F9.9477400335618036
sI1287
F9.5113126998496735
sI1288
F8.7306461412731711
sI1289
F11.278974617498667
sI1290
F9.0504974966583429
sI1291
F8.7085457942725046
sI1292
F10.622195081109597
sI1293
F9.7591488637542536
sI1294
F9.1906441284015852
sI1295
F12.126272477885871
sI1296
F10.550736117127451
sI1297
F11.084818603057709
sI1298
F11.278974617498667
sI1299
F10.659935409092444
sI1300
F10.659935409092444
sI1301
F8.7647403526161476
sI1302
F9.1644417560075606
sI1303
F9.9106987618814557
sI1304
F13.918031947113926
sI1305
F10.973592967947486
sI1306
F10.699156122245725
sI1307
F8.6097642497127218
sI1308
F11.433125297325926
sI1309
F9.6695367050645675
sI1310
F10.659935409092444
sI1311
F11.520136674315555
sI1312
F9.7436446772182883
sI1313
F8.8000381346971714
sI1314
F9.6695367050645675
sI1315
F11.720807369777706
sI1316
F9.7591488637542536
sI1317
F13.918031947113926
sI1318
F11.972121798058613
sI1319
F7.5619242864180345
sI1320
F10.452296044314199
sI1322
F11.720807369777706
sI1323
F5.4644177373405594
sI1324
F12.126272477885871
sI1325
F8.7085457942725046
sI1326
F12.819419658445817
sI1327
F11.145443224874144
sI1328
F13.918031947113926
sI1329
F10.133842313195665
sI1330
F11.084818603057709
sI1331
F10.873509509390503
sI1332
F11.433125297325926
sI1333
F10.82698949375561
sI1334
F9.9477400335618036
sI1335
F12.126272477885871
sI1336
F11.433125297325926
sI1337
F9.5235827924414878
sI1338
F10.659935409092444
sI1339
F12.531737585994035
sI1340
F11.278974617498667
sI1341
F11.520136674315555
sI1342
F11.35308258965239
sI1343
F10.622195081109597
sI1344
F13.918031947113926
sI1345
F10.22915249299999
sI1346
F11.278974617498667
sI1347
F11.209981746011715
sI1348
F9.5235827924414878
sI1349
F4.4532044075436028
sI1350
F3.9201892160966523
sI1351
F5.5932106483451447
sI1352
F6.4224900032296697
sI1353
F6.714626426030831
sI1354
F11.027660189217761
sI1355
F8.7085457942725046
sI1356
F7.1634278476259636
sI1357
F8.6501737880505978
sI1358
F8.6297649164193899
sI1359
F8.3345356383322269
sI1360
F5.6750124781246774
sI1361
F11.278974617498667
sI1362
F7.5812062159674847
sI1363
F9.5872986068275949
sI1364
F9.020192147163014
sI1365
F9.5613231204243334
sI1366
F8.962204889512666
sI1367
F7.4456856526130251
sI1369
F11.35308258965239
sI1370
F8.9140856411684659
sI1371
F9.020192147163014
sI1372
F8.0515638901806295
sI1373
F6.7486819304433263
sI1374
F13.918031947113926
sI1375
F6.014805138383192
sI1376
F10.922299673559936
sI1377
F10.550736117127451
sI1378
F10.254470300984279
sI1379
F9.9290479005496515
sI1380
F9.2085017458015912
sI1381
F8.2276724927898659
sI1382
F10.22915249299999
sI1383
F9.5113126998496735
sI1384
F8.8242817463071628
sI1385
F11.027660189217761
sI1386
F10.922299673559936
sI1387
F13.224884766553981
sI1388
F9.9290479005496515
sI1389
F10.51683456545177
sI1390
F8.7763683906112657
sI1391
F10.111369457343606
sI1392
F9.6413658280978698
sI1393
F7.6934735178385658
sI1394
F12.126272477885871
sI1395
F10.133842313195665
sI1396
F10.026211649003299
sI1397
F13.918031947113926
sI1398
F12.819419658445817
sI1399
F12.126272477885871
sI1400
F11.084818603057709
sI1401
F9.1906441284015852
sI1402
F12.531737585994035
sI1404
F11.433125297325926
sI1405
F9.5360053124400448
sI1406
F12.819419658445817
sI1407
F9.6005438335776159
sI1408
F12.819419658445817
sI1409
F7.2422087254790775
sI1410
F11.83859040543409
sI1411
F9.857588936567506
sI1412
F8.955187316854019
sI1413
F11.615446854119879
sI1414
F10.782537731184776
sI1415
F13.918031947113926
sI1416
F10.484044742628779
sI1417
F8.9980510212858
sI1418
F11.433125297325926
sI1420
F10.391671422497764
sI1421
F10.51683456545177
sI1422
F7.5362159297078275
sI1423
F7.5128034890830842
sI1424
F10.550736117127451
sI1425
F11.35308258965239
sI1426
F7.5430071272858292
sI1427
F8.6815899842839759
sI1428
F13.224884766553981
sI1429
F11.720807369777706
sI1430
F7.8426859160252418
sI1431
F9.1818334987194294
sI1432
F11.972121798058613
sI1433
F11.972121798058613
sI1434
F10.922299673559936
sI1435
F9.9290479005496515
sI1436
F9.857588936567506
sI1437
F10.484044742628779
sI1438
F12.531737585994035
sI1439
F8.6605365750861445
sI1440
F10.622195081109597
sI1441
F10.362683885624511
sI1442
F11.145443224874144
sI1443
F10.421524385647446
sI1444
F10.133842313195665
sI1445
F7.2873485614715543
sI1446
F6.6547023296370895
sI1447
F11.278974617498667
sI1448
F9.7436446772182883
sI1449
F8.9412982046933518
sI1450
F8.8554369140869582
sI1451
F11.615446854119879
sI1452
F11.35308258965239
sI1453
F11.084818603057709
sI1454
F10.391671422497764
sI1455
F11.615446854119879
sI1456
F11.615446854119879
sI1457
F11.433125297325926
sI1458
F10.922299673559936
sI1459
F11.278974617498667
sI1460
F10.307114034469702
sI1461
F11.433125297325926
sI1462
F9.6695367050645675
sI1463
F11.209981746011715
sI1464
F11.209981746011715
sI1465
F8.9980510212858
sI1466
F9.8404945032082072
sI1467
F11.520136674315555
sI1468
F11.084818603057709
sI1469
F9.7133393277229594
sI1470
F11.433125297325926
sI1471
F9.6139668539097567
sI1472
F8.868175939864388
sI1473
F9.8071580829406138
sI1474
F11.35308258965239
sI1475
F9.9106987618814557
sI1476
F10.204459880409619
sI1477
F9.9477400335618036
sI1478
F8.7418822145400963
sI1479
F10.585827436938722
sI1480
F7.3195229184994099
sI1481
F10.334513008657815
sI1482
F10.585827436938722
sI1483
F9.3229120969793353
sI1484
F9.6695367050645675
sI1485
F11.433125297325926
sI1486
F10.484044742628779
sI1487
F11.720807369777706
sI1488
F13.224884766553981
sI1489
F10.782537731184776
sI1490
F10.699156122245725
sI1491
F6.7448402046273275
sI1492
F10.782537731184776
sI1493
F11.615446854119879
sI1494
F4.0357169598105989
sI1495
F4.6042328667695127
sI1496
F6.6554033461396847
sI1497
F6.3256658185941301
sI1498
F11.084818603057709
sI1499
F10.973592967947486
sI1500
F9.3536837556460899
sI1501
F7.0742819981077014
sI1502
F10.973592967947486
sI1503
F9.1730998187506749
sI1504
F8.8875940257214907
sI1505
F9.8926802563787763
sI1506
F10.180362328830558
sI1507
F11.433125297325926
sI1508
F8.8242817463071628
sI1509
F8.7940679677106672
sI1510
F10.782537731184776
sI1511
F9.4521238284593423
sI1512
F10.659935409092444
sI1513
F7.8730266330779139
sI1514
F11.145443224874144
sI1515
F6.8792484057253844
sI1516
F10.452296044314199
sI1517
F11.209981746011715
sI1518
F10.659935409092444
sI1519
F10.585827436938722
sI1520
F11.520136674315555
sI1521
F7.7933485562197209
sI1522
F8.9482186475379244
sI1523
F7.6797073220744183
sI1524
F7.3842431091805825
sI1525
F8.3049038407258564
sI1526
F6.1747622462849217
sI1527
F7.6099335056043955
sI1528
F6.8180047804846664
sI1529
F10.82698949375561
sI1530
F10.622195081109597
sI1531
F10.550736117127451
sI1532
F6.1588445086061299
sI1533
F7.6797073220744183
sI1534
F9.857588936567506
sI1535
F11.209981746011715
sI1536
F7.656540262792884
sI1537
F10.307114034469702
sI1538
F11.972121798058613
sI1539
F11.972121798058613
sI1540
F11.35308258965239
sI1541
F11.278974617498667
sI1542
F11.83859040543409
sI1543
F9.0127571686754955
sI1544
F13.918031947113926
sI1545
F9.9290479005496515
sI1546
F12.126272477885871
sI1547
F12.126272477885871
sI1548
F10.873509509390503
sI1549
F11.83859040543409
sI1550
F8.9412982046933518
sI1551
F11.720807369777706
sI1552
F9.8404945032082072
sI1553
F6.1166406268224396
sI1554
F10.484044742628779
sI1555
F10.82698949375561
sI1556
F12.308594034679825
sI1557
F11.084818603057709
sI1558
F10.307114034469702
sI1559
F12.308594034679825
sI1560
F9.6695367050645675
sI1561
F11.433125297325926
sI1562
F11.520136674315555
sI1563
F9.7133393277229594
sI1564
F9.6553520700726096
sI1565
F10.156831831420364
sI1566
F9.6553520700726096
sI1567
F10.922299673559936
sI1568
F10.699156122245725
sI1569
F11.972121798058613
sI1570
F12.819419658445817
sI1571
F11.720807369777706
sI1572
F10.922299673559936
sI1573
F11.520136674315555
sI1574
F10.111369457343606
sI1575
F10.111369457343606
sI1576
F12.531737585994035
sI1577
F10.873509509390503
sI1578
F10.585827436938722
sI1579
F10.922299673559936
sI1580
F10.550736117127451
sI1581
F10.28044578738754
sI1582
F9.857588936567506
sI1583
F11.433125297325926
sI1584
F10.973592967947486
sI1585
F9.6413658280978698
sI1586
F12.819419658445817
sI1587
F10.307114034469702
sI1588
F10.82698949375561
sI1589
F12.126272477885871
sI1590
F9.7748972207223925
sI1591
F12.308594034679825
sI1592
F10.026211649003299
sI1593
F12.531737585994035
sI1594
F10.111369457343606
sI1595
F13.224884766553981
sI1596
F11.615446854119879
sI1597
F8.4373930237719339
sI1598
F8.4332350136232712
sI1599
F13.918031947113926
sI1600
F9.8749806792793748
sI1601
F10.622195081109597
sI1602
F13.918031947113926
sI1603
F10.067884345403867
sI1604
F9.4753806906236093
sI1605
F9.7591488637542536
sI1606
F9.1473473226482618
sI1607
F9.4753806906236093
sI1608
F12.308594034679825
sI1609
F11.278974617498667
sI1610
F9.4636846508604187
sI1611
F10.873509509390503
sI1612
F10.659935409092444
sI1613
F10.782537731184776
sI1614
F8.5661738136378585
sI1615
F10.452296044314199
sI1616
F9.0053770613778745
sI1617
F10.391671422497764
sI1618
F8.7306461412731711
sI1619
F10.622195081109597
sI1620
F9.857588936567506
sI1621
F7.8312572202016186
sI1622
F9.3747371648439213
sI1623
F8.6976761220356007
sI1624
F11.720807369777706
sI1625
F6.4956582461271015
sI1626
F6.4950606960645052
sI1627
F11.084818603057709
sI1628
F9.3029114302726654
sI1629
F11.145443224874144
sI1630
F10.973592967947486
sI1631
F9.1473473226482618
sI1632
F10.82698949375561
sI1633
F10.873509509390503
sI1634
F8.7940679677106672
sI1635
F9.3029114302726654
sI1636
F9.2452031126520193
sI1637
F9.105847591741508
sI1638
F10.622195081109597
sI1639
F8.6815899842839759
sI1640
F8.4167737365691995
sI1641
F11.278974617498667
sI1642
F9.2266840648847825
sI1643
F10.82698949375561
sI1644
F10.782537731184776
sI1645
F9.2736410479725535
sI1646
F9.2175515813215103
sI1647
F9.1222414015171847
sI1648
F10.133842313195665
sI1649
F12.126272477885871
sI1650
F13.918031947113926
sI1651
F12.126272477885871
sI1652
F11.278974617498667
sI1653
F11.209981746011715
sI1654
F9.3433209686105432
sI1655
F7.5532811902620143
sI1656
F5.1767356648887786
sI1657
F4.760565064744811
sI1658
F6.3256658185941301
sI1659
F6.191819296606397
sI1660
F6.3256658185941301
sI1661
F10.026211649003299
sI1662
F9.9667882285324989
sI1663
F11.278974617498667
sI1664
F11.720807369777706
sI1665
F11.433125297325926
sI1666
F12.531737585994035
sI1667
F12.308594034679825
sI1668
F11.433125297325926
sI1669
F10.973592967947486
sI1670
F10.180362328830558
sI1671
F10.659935409092444
sI1672
F9.9106987618814557
sI1673
F8.8810793447002965
sI1674
F8.8304356118815424
sI1675
F9.2930591338296544
sI1676
F9.2930591338296544
sI1677
F10.026211649003299
sI1678
F5.8166572758853441
sI1679
F4.0366877592634873
sI1681
F10.622195081109597
sI1682
F10.133842313195665
sI1683
F7.5413049992152992
sI1684
F7.5095031560544276
sI1685
F6.7220947206383572
sI1686
F9.7908975620688334
sI1687
F8.955187316854019
sI1688
F8.6657585190672961
sI1689
F9.3128617611258342
sI1690
F8.7195349158481008
sI1691
F7.3113817609157108
sI1692
F9.1730998187506749
sI1693
F6.4103418692940224
sI1694
F6.3822014843155586
sI1695
F6.3875519518683896
sI1696
F6.9586334349799506
sI1697
F7.7421646770081649
sI1698
F2.8463749492171395
sI1699
F12.531737585994035
sI1700
F8.3806976800953894
sI1701
F10.204459880409619
sI1702
F13.918031947113926
sI1703
F12.531737585994035
sI1704
F11.433125297325926
sI1705
F8.0347095586256465
sI1707
F10.659935409092444
sI1708
F10.089390550624831
sI1709
F13.224884766553981
sI1710
F10.622195081109597
sI1711
F10.28044578738754
sI1712
F9.1558580123161697
sI1713
F6.7587400423163606
sI1714
F4.4558439556951779
sI1715
F9.7908975620688334
sI1716
F9.3641550555133843
sI1717
F10.156831831420364
sI1718
F11.972121798058613
sI1720
F12.531737585994035
sI1721
F11.83859040543409
sI1722
F9.9106987618814557
sI1723
F10.699156122245725
sI1724
F13.224884766553981
sI1725
F11.145443224874144
sI1726
F13.918031947113926
sI1728
F10.622195081109597
sI1729
F13.224884766553981
sI1730
F12.819419658445817
sI1731
F12.819419658445817
sI1732
F10.973592967947486
sI1733
F13.224884766553981
sI1734
F12.531737585994035
sI1735
F11.145443224874144
sI1736
F13.224884766553981
sI1737
F10.089390550624831
sI1738
F11.278974617498667
sI1739
F11.084818603057709
sI1740
F10.922299673559936
sI1741
F11.145443224874144
sI1742
F8.4584464329697671
sI1743
F8.4290942209572393
sI1744
F11.972121798058613
sI1745
F9.1906441284015852
sI1746
F13.918031947113926
sI1747
F12.819419658445817
sI1748
F13.918031947113926
sI1749
F7.7911627629997406
sI1750
F8.8000381346971714
sI1751
F9.5360053124400448
sI1752
F9.4636846508604187
sI1753
F8.3846424583864057
sI1754
F11.209981746011715
sI1755
F10.622195081109597
sI1756
F11.145443224874144
sI1757
F12.531737585994035
sI1758
F11.433125297325926
sI1759
F11.615446854119879
sI1760
F12.308594034679825
sI1761
F11.83859040543409
sI1762
F10.82698949375561
sI1763
F11.209981746011715
sI1764
F9.5235827924414878
sI1765
F10.782537731184776
sI1766
F7.0052891266207498
sI1767
F9.3128617611258342
sI1768
F9.4521238284593423
sI1769
F11.209981746011715
sI1770
F9.9862063143895998
sI1771
F11.83859040543409
sI1772
F12.308594034679825
sI1773
F13.224884766553981
sI1774
F11.433125297325926
sI1775
F10.699156122245725
sI1776
F8.6869233302593383
sI1777
F10.452296044314199
sI1778
F10.739978116765981
sI1779
F11.278974617498667
sI1780
F11.972121798058613
sI1781
F9.8236873848918247
sI1782
F9.0276828188921723
sI1783
F7.0828473609666238
sI1784
F6.1730291435980869
sI1785
F8.1465908239839102
sI1786
F8.6605365750861445
sI1787
F9.6553520700726096
sI1788
F12.819419658445817
sI1789
F10.067884345403867
sI1790
F11.720807369777706
sI1791
F11.720807369777706
sI1792
F5.1964296024397294
sI1793
F11.615446854119879
sI1794
F10.782537731184776
sI1795
F11.35308258965239
sI1796
F11.972121798058613
sI1797
F9.4293955773817864
sI1798
F11.433125297325926
sI1799
F10.585827436938722
sI1800
F12.819419658445817
sI1801
F11.433125297325926
sI1802
F11.433125297325926
sI1803
F9.1222414015171847
sI1804
F9.7908975620688334
sI1805
F9.7908975620688334
sI1806
F9.418222276783661
sI1807
F10.82698949375561
sI1808
F10.28044578738754
sI1809
F10.82698949375561
sI1810
F9.3747371648439213
sI1811
F11.35308258965239
sI1812
F10.739978116765981
sI1813
F11.520136674315555
sI1814
F11.209981746011715
sI1815
F10.922299673559936
sI1816
F11.972121798058613
sI1817
F11.520136674315555
sI1818
F12.531737585994035
sI1819
F9.6839254425166672
sI1820
F8.7195349158481008
sI1821
F9.2930591338296544
sI1822
F11.278974617498667
sI1823
F10.391671422497764
sI1824
F10.334513008657815
sI1825
F10.133842313195665
sI1826
F11.35308258965239
sI1828
F9.5360053124400448
sI1829
F9.1305402043318793
sI1830
F10.973592967947486
sI1831
F13.918031947113926
sI1832
F9.418222276783661
sI1833
F12.308594034679825
sI1834
F11.278974617498667
sI1835
F9.1818334987194294
sI1836
F7.3263582151052677
sI1837
F11.433125297325926
sI1838
F7.0647328539278478
sI1839
F9.3854324539606697
sI1840
F11.35308258965239
sI1841
F11.972121798058613
sI1843
F9.5742265252602419
sI1844
F7.1223261719404114
sI1845
F8.1342067647841887
sI1846
F7.9240705198073567
sI1847
F8.7589766478993969
sI1848
F9.9667882285324989
sI1849
F9.0817500401624471
sI1850
F5.7254614759617519
sI1851
F7.5847523189742354
sI1852
F8.2832423439446767
sI1853
F5.8663723902719722
sI1854
F6.191819296606397
sI1855
F3.8508112025951959
sI1856
F7.4915434896562347
sI1857
F10.873509509390503
sI1858
F6.9787780010724179
sI1859
F7.8612479338853012
sI1860
F13.918031947113926
sI1861
F5.9493662466476902
sI1863
F9.8236873848918247
sI1864
F11.278974617498667
sI1865
F11.615446854119879
sI1866
F10.067884345403867
sI1867
F6.0274494124573899
sI1868
F9.105847591741508
sI1869
F6.961486503962357
sI1870
F10.973592967947486
sI1871
F7.4581274927363914
sI1872
F12.531737585994035
sI1873
F10.922299673559936
sI1874
F9.1818334987194294
sI1875
F9.5613231204243334
sI1876
F8.441568395182415
sI1877
F6.7356798352286633
sI1878
F12.819419658445817
sI1880
F12.819419658445817
sI1881
F10.00600894168578
sI1882
F10.782537731184776
sI1883
F13.918031947113926
sI1884
F9.627572505965535
sI1885
F8.6197145805658888
sI1886
F12.531737585994035
sI1887
F6.4114401670430849
sI1888
F10.484044742628779
sI1889
F12.531737585994035
sI1890
F13.918031947113926
sI1891
F13.918031947113926
sI1892
F9.4636846508604187
sI1893
F6.5707322463707616
sI1894
F8.501931544909505
sI1895
F11.720807369777706
sI1896
F10.111369457343606
sI1897
F11.278974617498667
sI1898
F13.918031947113926
sI1899
F12.126272477885871
sI1900
F10.180362328830558
sI1901
F10.873509509390503
sI1902
F13.918031947113926
sI1903
F11.35308258965239
sI1904
F12.308594034679825
sI1905
F10.22915249299999
sI1906
F11.433125297325926
sI1908
F11.615446854119879
sI1909
F12.819419658445817
sI1910
F10.204459880409619
sI1911
F8.7475479520757737
sI1912
F11.278974617498667
sI1913
F11.83859040543409
sI1914
F10.782537731184776
sI1915
F10.180362328830558
sI1916
F9.8926802563787763
sI1917
F11.615446854119879
sI1918
F8.6976761220356007
sI1919
F8.4627108317562243
sI1920
F11.972121798058613
sI1921
F8.6553417582090404
sI1922
F8.6450323885501792
sI1923
F9.097750381508888
sI1924
F10.873509509390503
sI1925
F9.0738448606553348
sI1926
F9.6985242419378181
sI1927
F10.089390550624831
sI1928
F9.8236873848918247
sI1929
F10.334513008657815
sI1930
F10.739978116765981
sI1932
F11.615446854119879
sI1933
F8.9907782619567218
sI1934
F11.35308258965239
sI1935
F11.084818603057709
sI1936
F13.224884766553981
sI1937
F11.278974617498667
sI1938
F7.400360674201651
sI1939
F6.6547023296370895
sI1940
F7.4691425529670683
sI1941
F11.520136674315555
sI1942
F8.4669934935482249
sI1944
F10.391671422497764
sI1945
F7.637636108153731
sI1946
F8.1622897335270128
sI1947
F9.857588936567506
sI1948
F11.83859040543409
sI1949
F8.8120864732133448
sI1950
F8.7195349158481008
sI1951
F1.3770883463295129
sI1952
F3.8909560203331792
sI1953
F2.7103688530945687
sI1954
F3.8724807553143297
sI1955
F7.5847523189742354
sI1956
F5.4536068212363444
sI1957
F9.0817500401624471
sI1958
F8.6247271223894337
sI1959
F10.585827436938722
sI1960
F10.452296044314199
sI1961
F7.9215798584949049
sI1962
F7.9043167910711238
sI1963
F8.6553417582090404
sI1964
F8.6815899842839759
sI1965
F13.918031947113926
sI1966
F7.9493243871285602
sI1967
F11.83859040543409
sI1968
F7.7277165412607784
sI1969
F7.5345253122299205
sI1970
F6.757962739517799
sI1971
F13.918031947113926
sI1972
F5.6327708130449778
sI1973
F9.0276828188921723
sI1974
F12.308594034679825
sI1975
F7.1358398911071346
sI1976
F10.391671422497764
sI1977
F7.7824670560321874
sI1978
F6.0259535258658072
sI1979
F9.0582195427522532
sI1980
F8.1528408443290807
sI1981
F5.5364294100040361
sI1982
F5.5355136590242902
sI1983
F6.8644462199202492
sI1984
F6.1444374797537318
sI1985
F5.5612422771907122
sI1986
F7.9116787875121934
sI1987
F6.6001557484874303
sI1988
F10.421524385647446
sI1989
F9.6139668539097567
sI1990
F7.9647886128261414
sI1991
F7.6044839008368301
sI1992
F9.5360053124400448
sI1993
F8.7589766478993969
sI1994
F7.1324443021059967
sI1995
F13.918031947113926
sI1996
F4.6728071732842409
sI1997
F7.6954556790425572
sI1998
F13.918031947113926
sI1999
F5.651610474129372
sI2000
F6.0490125706149023
sI2001
F5.5761449775977381
sI2002
F6.5981670173049558
sI2003
F12.819419658445817
sI2004
F11.83859040543409
sI2005
F10.622195081109597
sI2006
F8.0236291128490755
sI2007
F9.3747371648439213
sI2008
F4.7358853095085252
sI2009
F2.3143155898620607
sI2011
F8.8746068301946792
sI2012
F11.720807369777706
sI2013
F9.5113126998496735
sI2014
F11.720807369777706
sI2016
F9.6839254425166672
sI2017
F8.92759936033519
sI2018
F6.8592737945952615
sI2019
F9.7908975620688334
sI2020
F8.5427535394297607
sI2021
F12.308594034679825
sI2022
F7.4659829926767003
sI2023
F13.224884766553981
sI2024
F8.3886028596025017
sI2025
F9.6005438335776159
sI2026
F9.2545928530018582
sI2027
F13.918031947113926
sI2028
F13.224884766553981
sI2029
F8.4086436104859494
sI2030
F13.918031947113926
sI2032
F9.3330644684433537
sI2033
F11.83859040543409
sI2034
F7.5328375481162002
sI2035
F13.224884766553981
sI2036
F10.22915249299999
sI2037
F10.452296044314199
sI2038
F9.199533075818831
sI2039
F12.308594034679825
sI2040
F9.2266840648847825
sI2041
F12.819419658445817
sI2042
F10.922299673559936
sI2043
F8.0920318397334761
sI2044
F11.520136674315555
sI2045
F8.5289602172974242
sI2046
F12.819419658445817
sI2047
F7.9265674000059434
sI2048
F5.1147579646128811
sI2049
F8.5661738136378585
sI2050
F8.338302121127704
sI2051
F11.209981746011715
sI2052
F10.180362328830558
sI2053
F7.4612622915417628
sI2054
F13.918031947113926
sI2055
F9.3854324539606697
sI2056
F6.2793521232378131
sI2057
F2.2839602195917439
sI2058
F11.027660189217761
sI2059
F10.111369457343606
sI2060
F12.308594034679825
sI2061
F12.308594034679825
sI2062
F10.421524385647446
sI2063
F11.145443224874144
sI2064
F9.6839254425166672
sI2065
F7.089319875472242
sI2066
F13.224884766553981
sI2067
F11.972121798058613
sI2068
F10.873509509390503
sI2069
F12.819419658445817
sI2070
F13.918031947113926
sI2071
F11.720807369777706
sI2072
F10.699156122245725
sI2073
F8.5520559320920739
sI2074
F7.3086827039465456
sI2075
F8.3196099881155519
sI2076
F7.6546336845223024
sI2078
F5.0277591077336794
sI2079
F9.7748972207223925
sI2080
F5.0735514286535484
sI2081
F10.254470300984279
sI2082
F10.046830936206035
sI2083
F9.1644417560075606
sI2084
F9.2266840648847825
sI2085
F10.22915249299999
sI2086
F10.782537731184776
sI2087
F7.0448681129014075
sI2088
F7.0284406387594602
sI2089
F13.224884766553981
sI2090
F10.550736117127451
sI2091
F5.8353208128763452
sI2092
F10.067884345403867
sI2093
F6.9259355196980374
sI2094
F10.739978116765981
sI2095
F7.0552740340625242
sI2096
F11.433125297325926
sI2097
F10.922299673559936
sI2099
F12.126272477885871
sI2101
F12.126272477885871
sI2102
F13.918031947113926
sI2103
F11.35308258965239
sI2104
F11.145443224874144
sI2105
F9.8071580829406138
sI2106
F12.308594034679825
sI2107
F11.720807369777706
sI2108
F7.8222073846817013
sI2109
F13.224884766553981
sI2110
F13.918031947113926
sI2111
F11.615446854119879
sI2112
F11.972121798058613
sI2113
F11.972121798058613
sI2114
F10.550736117127451
sI2115
F7.8132387146989402
sI2116
F9.3433209686105432
sI2117
F7.664203135538453
sI2118
F8.955187316854019
sI2119
F9.5360053124400448
sI2120
F5.9570104812305562
sI2121
F9.0817500401624471
sI2122
F8.0236291128490755
sI2123
F7.0427998598373485
sI2124
F9.418222276783661
sI2125
F9.0897182098116254
sI2127
F6.196683334495976
sI2128
F11.720807369777706
sI2129
F10.622195081109597
sI2130
F10.622195081109597
sI2132
F12.531737585994035
sI2133
F10.111369457343606
sI2134
F9.3962433700648855
sI2135
F7.8519238570101777
sI2136
F9.1222414015171847
sI2137
F8.441568395182415
sI2138
F10.334513008657815
sI2139
F8.1250183387297827
sI2140
F12.308594034679825
sI2141
F8.8617861417656183
sI2142
F12.308594034679825
sI2143
F10.922299673559936
sI2144
F11.209981746011715
sI2145
F10.550736117127451
sI2146
F11.615446854119879
sI2147
F11.972121798058613
sI2148
F11.35308258965239
sI2149
F12.308594034679825
sI2150
F11.83859040543409
sI2151
F12.819419658445817
sI2152
F12.308594034679825
sI2153
F10.782537731184776
sI2154
F6.3076743288010881
sI2155
F10.973592967947486
sI2156
F10.51683456545177
sI2158
F11.83859040543409
sI2159
F13.918031947113926
sI2160
F13.224884766553981
sI2161
F10.391671422497764
sI2162
F9.105847591741508
sI2163
F6.6745189724484444
sI2164
F8.8181655192897281
sI2165
F7.4456856526130251
sI2166
F11.520136674315555
sI2167
F7.6451549405677586
sI2168
F11.027660189217761
sI2169
F8.5804938674126081
sI2170
F12.819419658445817
sI2171
F8.8120864732133448
sI2172
F11.720807369777706
sI2173
F10.782537731184776
sI2174
F11.83859040543409
sI2175
F8.6553417582090404
sI2176
F7.5794378689107429
sI2177
F5.5683111096414368
sI2178
F7.2913141978649012
sI2179
F6.105653741125316
sI2180
F6.826289832018773
sI2181
F8.1189392926533994
sI2182
F10.782537731184776
sI2183
F7.7781473948876707
sI2184
F6.8057045024030147
sI2185
F9.8749806792793748
sI2186
F9.8404945032082072
sI2187
F8.5198692455961726
sI2188
F6.1444374797537318
sI2189
F5.6559891031469842
sI2190
F6.0056088256402207
sI2191
F5.8022122459025995
sI2192
F7.0563206066331956
sI2193
F6.613516000653771
sI2194
F7.5194370125787184
sI2195
F6.9023195266266963
sI2196
F7.527791280048576
sI2197
F9.6985242419378181
sI2198
F8.1434804015695175
sI2199
F10.00600894168578
sI2200
F9.2930591338296544
sI2201
F6.7587400423163606
sI2202
F8.1559805643337491
sI2203
F10.452296044314199
sI2204
F5.967177089393938
sI2205
F6.9681754921131533
sI2206
F9.105847591741508
sI2207
F6.0644271340160891
sI2208
F8.0431012162618956
sI2209
F7.29795874058357
sI2210
F8.5567397814045005
sI2211
F6.5377761586874659
sI2212
F5.9689404472834093
sI2213
F9.1305402043318793
sI2214
F8.34208284396761
sI2215
F7.6190827002579828
sI2216
F9.1140109023806684
sI2217
F12.531737585994035
sI2219
F7.5345253122299205
sI2220
F6.5759002165292042
sI2221
F6.1158226308668082
sI2222
F10.739978116765981
sI2223
F9.3029114302726654
sI2224
F7.1541470385514909
sI2225
F5.881782004981809
sI2226
F7.2781561132873902
sI2227
F13.224884766553981
sI2229
F13.918031947113926
sI2230
F10.782537731184776
sI2231
F8.6657585190672961
sI2232
F12.126272477885871
sI2233
F9.4636846508604187
sI2234
F11.084818603057709
sI2235
F10.622195081109597
sI2236
F7.7114560203889981
sI2237
F11.720807369777706
sI2238
F10.739978116765981
sI2239
F9.4753806906236093
sI2240
F6.3501693416500435
sI2241
F5.2609029154001714
sI2242
F7.656540262792884
sI2243
F11.720807369777706
sI2245
F12.819419658445817
sI2246
F8.9482186475379244
sI2248
F10.659935409092444
sI2249
F13.918031947113926
sI2250
F10.046830936206035
sI2251
F10.00600894168578
sI2252
F11.520136674315555
sI2253
F11.145443224874144
sI2255
F11.720807369777706
sI2256
F12.126272477885871
sI2257
F10.699156122245725
sI2259
F10.973592967947486
sI2260
F9.8404945032082072
sI2261
F10.659935409092444
sI2262
F11.084818603057709
sI2263
F12.308594034679825
sI2264
F11.615446854119879
sI2265
F10.22915249299999
sI2266
F9.9477400335618036
sI2267
F9.9477400335618036
sI2268
F11.972121798058613
sI2269
F11.83859040543409
sI2270
F11.278974617498667
sI2271
F12.308594034679825
sI2272
F9.9862063143895998
sI2273
F7.9518852079902338
sI2274
F7.8154733525003568
sI2275
F7.0573682756656391
sI2276
F10.659935409092444
sI2277
F8.9763895245046221
sI2278
F10.51683456545177
sI2279
F8.1434804015695175
sI2280
F8.6147270390548503
sI2281
F8.4974969478416398
sI2282
F13.918031947113926
sI2283
F9.8926802563787763
sI2284
F7.436454817837495
sI2285
F12.819419658445817
sI2286
F8.7195349158481008
sI2287
F7.1145266895055874
sI2288
F10.973592967947486
sI2289
F9.5872986068275949
sI2290
F9.3536837556460899
sI2291
F4.6662617653746032
sI2292
F7.0796267462665821
sI2293
F9.627572505965535
sI2294
F9.7591488637542536
sI2295
F10.307114034469702
sI2296
F9.2175515813215103
sI2297
F9.0428346239127748
sI2298
F8.7763683906112657
sI2299
F7.7933485562197209
sI2300
F8.6605365750861445
sI2301
F8.6553417582090404
sI2302
F9.199533075818831
sI2303
F9.9667882285324989
sI2304
F6.1490759025755937
sI2305
F5.0024654014032803
sI2306
F8.7030961895049401
sI2307
F13.918031947113926
sI2308
F8.7140252600371308
sI2309
F10.254470300984279
sI2310
F8.1280717762166717
sI2311
F8.1128969781974369
sI2312
F7.276849777373334
sI2313
F12.819419658445817
sI2314
F3.9694276357746747
sI2315
F6.1244451437423422
sI2316
F10.089390550624831
sI2317
F9.6695367050645675
sI2318
F11.084818603057709
sI2319
F9.9106987618814557
sI2320
F11.027660189217761
sI2321
F8.2655427668452752
sI2322
F8.4005790506492186
sI2323
F12.308594034679825
sI2324
F12.819419658445817
sI2327
F10.782537731184776
sI2328
F9.8404945032082072
sI2329
F11.720807369777706
sI2330
F12.819419658445817
sI2331
F11.084818603057709
sI2332
F10.659935409092444
sI2333
F9.3747371648439213
sI2334
F13.918031947113926
sI2335
F12.819419658445817
sI2336
F6.1644084005541799
sI2337
F12.126272477885871
sI2338
F10.622195081109597
sI2339
F10.00600894168578
sI2340
F6.0136971050288306
sI2341
F12.126272477885871
sI2343
F11.278974617498667
sI2344
F8.4005790506492186
sI2345
F7.5883110415912292
sI2346
F9.4991913393173277
sI2347
F7.8496063588698153
sI2348
F8.4499718059787945
sI2349
F9.105847591741508
sI2350
F10.782537731184776
sI2351
F9.2266840648847825
sI2352
F10.873509509390503
sI2354
F11.520136674315555
sI2355
F11.520136674315555
sI2357
F8.9835580139832345
sI2358
F8.8304356118815424
sI2359
F11.278974617498667
sI2360
F9.1644417560075606
sI2361
F9.0504974966583429
sI2362
F11.720807369777706
sI2363
F7.7034238486917337
sI2364
F9.1140109023806684
sI2365
F11.83859040543409
sI2366
F7.9991380928407789
sI2367
F8.9344253254055896
sI2368
F10.00600894168578
sI2369
F9.4071724405970762
sI2370
F9.8071580829406138
sI2371
F9.7748972207223925
sI2372
F10.973592967947486
sI2373
F11.145443224874144
sI2374
F12.531737585994035
sI2376
F13.918031947113926
sI2377
F13.224884766553981
sI2378
F7.6301733869521415
sI2379
F7.6451549405677586
sI2380
F11.83859040543409
sI2381
F10.922299673559936
sI2382
F11.145443224874144
sI2384
F11.720807369777706
sI2385
F12.126272477885871
sI2386
F11.027660189217761
sI2387
F12.819419658445817
sI2388
F12.531737585994035
sI2389
F13.918031947113926
sI2390
F11.278974617498667
sI2391
F11.209981746011715
sI2394
F8.4843099435596869
sI2395
F12.308594034679825
sI2396
F9.9106987618814557
sI2397
F10.452296044314199
sI2399
F11.35308258965239
sI2400
F9.8236873848918247
sI2401
F12.126272477885871
sI2402
F11.972121798058613
sI2403
F11.83859040543409
sI2404
F11.520136674315555
sI2405
F11.520136674315555
sI2406
F10.973592967947486
sI2407
F10.334513008657815
sI2408
F10.067884345403867
sI2409
F11.35308258965239
sI2410
F9.0660016831943082
sI2411
F11.520136674315555
sI2412
F12.531737585994035
sI2413
F11.145443224874144
sI2414
F11.084818603057709
sI2415
F11.520136674315555
sI2416
F11.084818603057709
sI2417
F11.520136674315555
sI2418
F11.084818603057709
sI2419
F10.622195081109597
sI2420
F13.918031947113926
sI2421
F11.027660189217761
sI2422
F10.585827436938722
sI2423
F10.699156122245725
sI2424
F13.224884766553981
sI2425
F12.126272477885871
sI2426
F11.972121798058613
sI2427
F12.819419658445817
sI2428
F11.720807369777706
sI2429
F11.615446854119879
sI2430
F12.308594034679825
sI2431
F11.027660189217761
sI2432
F10.82698949375561
sI2433
F12.819419658445817
sI2434
F11.720807369777706
sI2435
F11.615446854119879
sI2436
F10.973592967947486
sI2437
F7.9240705198073567
sI2438
F7.0817726698368588
sI2439
F7.0152892099553332
sI2440
F11.433125297325926
sI2441
F12.308594034679825
sI2442
F9.6553520700726096
sI2443
F9.5485840946469036
sI2444
F12.126272477885871
sI2445
F10.659935409092444
sI2446
F11.433125297325926
sI2447
F9.4521238284593423
sI2448
F11.35308258965239
sI2449
F10.254470300984279
sI2450
F12.308594034679825
sI2451
F11.615446854119879
sI2452
F11.209981746011715
sI2453
F12.308594034679825
sI2454
F7.5706427374579155
sI2455
F11.433125297325926
sI2456
F11.83859040543409
sI2457
F12.531737585994035
sI2458
F11.83859040543409
sI2459
F10.51683456545177
sI2460
F13.224884766553981
sI2461
F11.209981746011715
sI2462
F10.026211649003299
sI2463
F11.720807369777706
sI2464
F13.918031947113926
sI2465
F11.027660189217761
sI2466
F10.362683885624511
sI2467
F11.433125297325926
sI2468
F11.35308258965239
sI2469
F12.126272477885871
sI2470
F11.084818603057709
sI2471
F12.531737585994035
sI2472
F12.531737585994035
sI2473
F9.1818334987194294
sI2474
F8.8366275821294629
sI2475
F8.4167737365691995
sI2476
F8.1434804015695175
sI2477
F11.278974617498667
sI2478
F10.22915249299999
sI2479
F13.918031947113926
sI2480
F13.224884766553981
sI2481
F9.0817500401624471
sI2482
F11.720807369777706
sI2483
F11.084818603057709
sI2484
F10.307114034469702
sI2485
F8.4373930237719339
sI2486
F13.224884766553981
sI2487
F5.0166653830571466
sI2488
F11.35308258965239
sI2489
F6.8739990498392407
sI2490
F10.180362328830558
sI2491
F9.4753806906236093
sI2492
F10.067884345403867
sI2493
F12.531737585994035
sI2494
F13.918031947113926
sI2495
F8.8491277448936945
sI2496
F10.82698949375561
sI2497
F10.334513008657815
sI2498
F8.6869233302593383
sI2499
F11.35308258965239
sI2500
F11.209981746011715
sI2501
F9.4872151482706126
sI2502
F9.7591488637542536
sI2503
F6.3221420293953878
sI2504
F9.6553520700726096
sI2505
F13.224884766553981
sI2506
F10.873509509390503
sI2507
F9.7591488637542536
sI2508
F7.8873466868526627
sI2509
F12.819419658445817
sI2510
F13.918031947113926
sI2512
F12.531737585994035
sI2513
F11.278974617498667
sI2514
F8.5709244163964566
sI2515
F10.782537731184776
sI2517
F12.819419658445817
sI2519
F7.9265674000059434
sI2520
F9.6413658280978698
sI2521
F4.2069162872252539
sI2522
F7.6934735178385658
sI2523
F10.82698949375561
sI2524
F9.4071724405970762
sI2525
F8.9763895245046221
sI2526
F8.6197145805658888
sI2527
F9.8404945032082072
sI2528
F10.334513008657815
sI2529
F11.084818603057709
sI2530
F11.720807369777706
sI2531
F6.961486503962357
sI2532
F8.0402961653342864
sI2533
F11.83859040543409
sI2534
F9.9106987618814557
sI2535
F8.7418822145400963
sI2536
F8.6197145805658888
sI2537
F7.7014258460290606
sI2538
F12.308594034679825
sI2539
F10.585827436938722
sI2540
F11.972121798058613
sI2541
F10.484044742628779
sI2543
F13.224884766553981
sI2544
F6.3027336072881113
sI2545
F11.615446854119879
sI2546
F13.224884766553981
sI2547
F12.308594034679825
sI2548
F12.819419658445817
sI2549
F11.83859040543409
sI2550
F13.918031947113926
sI2551
F12.308594034679825
sI2552
F10.82698949375561
sI2553
F12.531737585994035
sI2554
F13.918031947113926
sI2555
F11.720807369777706
sI2556
F12.126272477885871
sI2557
F11.35308258965239
sI2558
F11.83859040543409
sI2559
F11.433125297325926
sI2561
F12.531737585994035
sI2562
F13.224884766553981
sI2563
F13.224884766553981
sI2564
F13.224884766553981
sI2565
F13.918031947113926
sI2566
F11.084818603057709
sI2567
F11.35308258965239
sI2568
F13.918031947113926
sI2570
F12.531737585994035
sI2571
F12.308594034679825
sI2572
F11.615446854119879
sI2573
F12.126272477885871
sI2574
F11.520136674315555
sI2575
F11.433125297325926
sI2576
F12.531737585994035
sI2577
F12.126272477885871
sI2579
F10.782537731184776
sI2580
F11.972121798058613
sI2582
F11.35308258965239
sI2583
F13.224884766553981
sI2584
F11.615446854119879
sI2585
F12.308594034679825
sI2586
F10.180362328830558
sI2587
F10.180362328830558
sI2588
F12.308594034679825
sI2589
F13.918031947113926
sI2590
F13.224884766553981
sI2591
F10.739978116765981
sI2592
F13.224884766553981
sI2593
F13.918031947113926
sI2594
F11.520136674315555
sI2595
F12.819419658445817
sI2596
F13.918031947113926
sI2597
F11.278974617498667
sI2598
F12.819419658445817
sI2599
F13.918031947113926
sI2600
F11.83859040543409
sI2601
F9.9667882285324989
sI2602
F11.972121798058613
sI2603
F11.972121798058613
sI2604
F12.819419658445817
sI2605
F6.961486503962357
sI2607
F11.972121798058613
sI2609
F10.026211649003299
sI2610
F13.918031947113926
sI2611
F12.126272477885871
sI2612
F13.224884766553981
sI2613
F13.918031947113926
sI2614
F13.918031947113926
sI2615
F13.224884766553981
sI2616
F13.918031947113926
sI2617
F13.918031947113926
sI2618
F12.531737585994035
sI2619
F11.615446854119879
sI2620
F13.918031947113926
sI2621
F10.133842313195665
sI2622
F10.782537731184776
sI2623
F11.35308258965239
sI2624
F13.224884766553981
sI2625
F12.308594034679825
sI2626
F11.35308258965239
sI2627
F11.433125297325926
sI2628
F13.918031947113926
sI2629
F12.126272477885871
sI2630
F12.819419658445817
sI2631
F12.531737585994035
sI2632
F11.520136674315555
sI2633
F11.720807369777706
sI2634
F11.35308258965239
sI2635
F12.126272477885871
sI2636
F11.520136674315555
sI2637
F11.972121798058613
sI2638
F11.972121798058613
sI2639
F13.918031947113926
sI2640
F12.308594034679825
sI2641
F13.224884766553981
sI2642
F13.224884766553981
sI2643
F13.224884766553981
sI2644
F13.224884766553981
sI2645
F12.126272477885871
sI2646
F12.819419658445817
sI2647
F11.972121798058613
sI2648
F11.83859040543409
sI2649
F11.972121798058613
sI2650
F13.224884766553981
sI2651
F12.126272477885871
sI2652
F10.51683456545177
sI2653
F12.819419658445817
sI2654
F12.126272477885871
sI2655
F10.973592967947486
sI2656
F9.2452031126520193
sI2657
F11.720807369777706
sI2658
F13.918031947113926
sI2659
F13.918031947113926
sI2660
F12.819419658445817
sI2662
F13.918031947113926
sI2663
F11.720807369777706
sI2664
F10.873509509390503
sI2665
F11.433125297325926
sI2666
F11.615446854119879
sI2667
F11.278974617498667
sI2668
F11.615446854119879
sI2669
F11.615446854119879
sI2670
F9.7283772050875008
sI2671
F12.308594034679825
sI2672
F11.615446854119879
sI2673
F10.421524385647446
sI2674
F12.308594034679825
sI2675
F10.873509509390503
sI2676
F12.126272477885871
sI2677
F12.819419658445817
sI2679
F13.918031947113926
sI2680
F11.720807369777706
sI2682
F11.35308258965239
sI2683
F11.278974617498667
sI2684
F13.918031947113926
sI2685
F10.585827436938722
sI2686
F13.918031947113926
sI2687
F11.972121798058613
sI2688
F12.531737585994035
sI2690
F12.819419658445817
sI2692
F11.084818603057709
sI2693
F12.126272477885871
sI2694
F12.308594034679825
sI2695
F12.126272477885871
sI2696
F10.133842313195665
sI2697
F9.264071596956402
sI2698
F12.819419658445817
sI2699
F7.7803048930276919
sI2700
F11.615446854119879
sI2702
F11.83859040543409
sI2703
F13.224884766553981
sI2704
F11.520136674315555
sI2705
F11.35308258965239
sI2706
F11.35308258965239
sI2707
F10.699156122245725
sI2708
F10.699156122245725
sI2709
F13.918031947113926
sI2710
F11.433125297325926
sI2711
F12.126272477885871
sI2712
F10.659935409092444
sI2713
F11.720807369777706
sI2714
F13.918031947113926
sI2715
F11.83859040543409
sI2716
F11.433125297325926
sI2717
F11.720807369777706
sI2719
F10.51683456545177
sI2721
F13.918031947113926
sI2722
F12.531737585994035
sI2723
F11.972121798058613
sI2724
F11.83859040543409
sI2725
F11.720807369777706
sI2726
F11.520136674315555
sI2728
F10.82698949375561
sI2729
F12.308594034679825
sI2730
F12.819419658445817
sI2731
F10.204459880409619
sI2732
F11.720807369777706
sI2733
F8.5853131538485563
sI2734
F13.224884766553981
sI2735
F12.126272477885871
sI2737
F12.126272477885871
sI2738
F13.918031947113926
sI2741
F13.918031947113926
sI2742
F13.224884766553981
sI2743
F11.972121798058613
sI2744
F13.224884766553981
sI2745
F12.819419658445817
sI2746
F12.531737585994035
sI2747
F11.720807369777706
sI2748
F11.615446854119879
sI2750
F11.83859040543409
sI2751
F12.126272477885871
sI2752
F11.972121798058613
sI2753
F13.918031947113926
sI2754
F12.819419658445817
sI2755
F12.819419658445817
sI2756
F10.133842313195665
sI2757
F12.531737585994035
sI2758
F10.739978116765981
sI2759
F10.973592967947486
sI2760
F10.82698949375561
sI2761
F11.145443224874144
sI2762
F11.972121798058613
sI2763
F11.972121798058613
sI2764
F13.224884766553981
sI2765
F10.452296044314199
sI2766
F9.5485840946469036
sI2767
F12.531737585994035
sI2768
F12.531737585994035
sI2769
F10.973592967947486
sI2770
F10.699156122245725
sI2771
F10.699156122245725
sI2772
F11.972121798058613
sI2773
F12.308594034679825
sI2775
F13.224884766553981
sI2776
F12.531737585994035
sI2777
F11.209981746011715
sI2778
F12.819419658445817
sI2779
F11.209981746011715
sI2780
F11.027660189217761
sI2782
F11.83859040543409
sI2783
F13.224884766553981
sI2785
F11.433125297325926
sI2786
F11.972121798058613
sI2789
F12.819419658445817
sI2790
F12.819419658445817
sI2791
F12.531737585994035
sI2792
F12.308594034679825
sI2793
F12.308594034679825
sI2794
F13.918031947113926
sI2795
F12.308594034679825
sI2796
F10.622195081109597
sI2797
F12.531737585994035
sI2798
F12.308594034679825
sI2799
F12.308594034679825
sI2800
F13.918031947113926
sI2801
F11.615446854119879
sI2802
F10.452296044314199
sI2803
F9.9667882285324989
sI2804
F12.126272477885871
sI2805
F11.145443224874144
sI2806
F13.918031947113926
sI2808
F11.972121798058613
sI2809
F10.421524385647446
sI2810
F9.105847591741508
sI2811
F11.433125297325926
sI2812
F12.308594034679825
sI2813
F11.278974617498667
sI2814
F10.782537731184776
sI2815
F13.224884766553981
sI2816
F11.084818603057709
sI2817
F12.819419658445817
sI2818
F13.918031947113926
sI2819
F13.918031947113926
sI2820
F11.83859040543409
sI2821
F11.972121798058613
sI2822
F12.126272477885871
sI2823
F13.918031947113926
sI2824
F12.126272477885871
sI2825
F11.209981746011715
sI2826
F11.83859040543409
sI2827
F11.084818603057709
sI2828
F11.972121798058613
sI2829
F11.520136674315555
sI2830
F11.433125297325926
sI2831
F12.126272477885871
sI2832
F10.156831831420364
sI2833
F10.046830936206035
sI2834
F11.520136674315555
sI2835
F11.972121798058613
sI2836
F13.918031947113926
sI2837
F11.027660189217761
sI2838
F11.83859040543409
sI2839
F11.972121798058613
sI2840
F9.9106987618814557
sI2841
F13.224884766553981
sI2842
F10.973592967947486
sI2843
F5.9738944559998135
sI2844
F11.615446854119879
sI2845
F11.35308258965239
sI2846
F10.82698949375561
sI2847
F12.531737585994035
sI2848
F11.520136674315555
sI2849
F9.9106987618814557
sI2850
F11.972121798058613
sI2851
F10.659935409092444
sI2852
F11.615446854119879
sI2853
F13.224884766553981
sI2854
F13.918031947113926
sI2855
F12.819419658445817
sI2856
F13.224884766553981
sI2857
F12.308594034679825
sI2858
F12.531737585994035
sI2859
F11.972121798058613
sI2860
F12.308594034679825
sI2861
F11.145443224874144
sI2862
F10.82698949375561
sI2863
F10.452296044314199
sI2864
F11.433125297325926
sI2866
F12.531737585994035
sI2868
F9.6985242419378181
sI2869
F12.531737585994035
sI2870
F12.531737585994035
sI2871
F11.972121798058613
sI2872
F12.308594034679825
sI2873
F13.918031947113926
sI2874
F11.433125297325926
sI2875
F13.918031947113926
sI2876
F12.819419658445817
sI2877
F12.819419658445817
sI2878
F13.224884766553981
sI2880
F12.126272477885871
sI2881
F13.224884766553981
sI2882
F11.972121798058613
sI2883
F11.83859040543409
sI2884
F12.308594034679825
sI2885
F12.531737585994035
sI2886
F13.224884766553981
sI2887
F12.819419658445817
sI2888
F11.433125297325926
sI2889
F13.224884766553981
sI2890
F12.819419658445817
sI2891
F12.531737585994035
sI2892
F11.520136674315555
sI2893
F13.918031947113926
sI2894
F9.3641550555133843
sI2895
F13.224884766553981
sI2896
F11.520136674315555
sI2897
F9.8236873848918247
sI2898
F13.224884766553981
sI2899
F13.918031947113926
sI2900
F11.145443224874144
sI2901
F10.362683885624511
sI2902
F11.278974617498667
sI2903
F12.308594034679825
sI2904
F9.9862063143895998
sI2905
F11.972121798058613
sI2908
F6.6688168899995368
sI2909
F13.224884766553981
sI2910
F12.126272477885871
sI2911
F12.819419658445817
sI2914
F13.918031947113926
sI2916
F12.308594034679825
sI2917
F12.819419658445817
sI2918
F10.873509509390503
sI2919
F13.918031947113926
sI2920
F10.585827436938722
sI2922
F9.9667882285324989
sI2923
F13.224884766553981
sI2924
F13.918031947113926
sI2925
F12.126272477885871
sI2926
F13.918031947113926
sI2928
F11.720807369777706
sI2929
F5.6302519200254935
sI2930
F13.224884766553981
sI2931
F13.918031947113926
sI2932
F13.224884766553981
sI2933
F11.520136674315555
sI2934
F11.615446854119879
sI2935
F11.027660189217761
sI2936
F11.615446854119879
sI2937
F13.918031947113926
sI2938
F13.918031947113926
sI2939
F9.5613231204243334
sI2940
F13.224884766553981
sI2941
F11.972121798058613
sI2942
F12.819419658445817
sI2943
F13.918031947113926
sI2944
F9.5360053124400448
sI2946
F13.918031947113926
sI2947
F8.868175939864388
sI2948
F7.8542467384263173
sI2949
F13.918031947113926
sI2950
F13.224884766553981
sI2951
F11.972121798058613
sI2952
F13.918031947113926
sI2953
F13.918031947113926
sI2954
F13.918031947113926
sI2955
F11.615446854119879
sI2956
F9.6005438335776159
sI2957
F13.918031947113926
sI2959
F12.531737585994035
sI2960
F8.6297649164193899
sI2961
F11.145443224874144
sI2962
F13.224884766553981
sI2963
F13.224884766553981
sI2964
F13.918031947113926
sI2965
F13.918031947113926
sI2966
F8.9007521102990008
sI2967
F13.918031947113926
sI2968
F12.531737585994035
sI2969
F13.224884766553981
sI2970
F11.972121798058613
sI2971
F13.224884766553981
sI2972
F13.918031947113926
sI2973
F9.4872151482706126
sI2974
F5.5417113145791044
sI2975
F13.918031947113926
sI2976
F13.918031947113926
sI2977
F13.918031947113926
sI2978
F13.224884766553981
sI2979
F13.918031947113926
sI2980
F11.720807369777706
sI2981
F12.126272477885871
sI2982
F12.819419658445817
sI2983
F11.520136674315555
sI2984
F11.83859040543409
sI2985
F12.819419658445817
sI2986
F13.918031947113926
sI2987
F13.918031947113926
sI2989
F13.918031947113926
sI2990
F12.126272477885871
sI2992
F12.531737585994035
sI2993
F13.918031947113926
sI2994
F12.819419658445817
sI2995
F13.918031947113926
sI2996
F13.918031947113926
sI2997
F13.918031947113926
sI2998
F13.918031947113926
sI2999
F6.0864146707613154
sI3000
F13.918031947113926
sI3001
F12.531737585994035
sI3002
F13.224884766553981
sI3003
F9.9290479005496515
sI3004
F12.308594034679825
sI3005
F13.918031947113926
sI3006
F12.308594034679825
sI3007
F10.089390550624831
sI3008
F8.8941514262676495
sI3009
F13.224884766553981
sI3010
F7.1178618788117261
sI3011
F10.421524385647446
sI3012
F9.6553520700726096
sI3013
F13.224884766553981
sI3014
F13.918031947113926
sI3015
F13.918031947113926
sI3017
F13.918031947113926
sI3018
F13.918031947113926
sI3019
F13.918031947113926
sI3020
F13.918031947113926
sI3021
F10.421524385647446
sI3022
F11.145443224874144
sI3023
F11.084818603057709
sI3024
F11.83859040543409
sI3026
F11.520136674315555
sI3027
F13.918031947113926
sI3028
F11.972121798058613
sI3029
F13.918031947113926
sI3030
F13.918031947113926
sI3031
F13.918031947113926
sI3032
F13.918031947113926
sI3033
F13.224884766553981
sI3034
F10.28044578738754
sI3035
F8.5063858952588856
sI3036
F13.918031947113926
sI3037
F11.084818603057709
sI3038
F11.720807369777706
sI3039
F13.918031947113926
sI3040
F13.224884766553981
sI3041
F13.224884766553981
sI3042
F13.918031947113926
sI3043
F11.615446854119879
sI3044
F13.918031947113926
sI3045
F8.6348282183759366
sI3046
F12.531737585994035
sI3047
F11.278974617498667
sI3048
F12.531737585994035
sI3049
F11.433125297325926
sI3050
F9.627572505965535
sI3051
F13.224884766553981
sI3052
F10.622195081109597
sI3053
F11.615446854119879
sI3054
F11.615446854119879
sI3056
F12.308594034679825
sI3057
F10.51683456545177
sI3058
F9.1730998187506749
sI3060
F13.224884766553981
sI3061
F10.873509509390503
sI3062
F12.531737585994035
sI3063
F11.83859040543409
sI3064
F7.111202586721749
sI3066
F13.918031947113926
sI3067
F9.6005438335776159
sI3069
F8.7475479520757737
sI3070
F7.8897534268832272
sI3071
F7.5865300972202343
sI3072
F9.6005438335776159
sI3073
F9.8926802563787763
sI3074
F12.819419658445817
sI3075
F13.918031947113926
sI3076
F13.224884766553981
sI3078
F12.531737585994035
sI3081
F12.819419658445817
sI3082
F10.622195081109597
sI3083
F11.35308258965239
sI3084
F13.224884766553981
sI3085
F10.973592967947486
sI3086
F11.35308258965239
sI3087
F11.83859040543409
sI3088
F11.83859040543409
sI3089
F12.531737585994035
sI3090
F12.308594034679825
sI3092
F4.0555747441357894
sI3093
F4.8172832517678374
sI3094
F13.918031947113926
sI3095
F13.918031947113926
sI3096
F11.972121798058613
sI3097
F10.585827436938722
sI3098
F11.145443224874144
sI3101
F12.126272477885871
sI3103
F10.28044578738754
sI3104
F11.720807369777706
sI3105
F9.5742265252602419
sI3106
F13.224884766553981
sI3107
F11.520136674315555
sI3108
F10.873509509390503
sI3109
F11.972121798058613
sI3110
F11.520136674315555
sI3112
F13.224884766553981
sI3114
F11.972121798058613
sI3115
F11.83859040543409
sI3116
F13.918031947113926
sI3117
F12.308594034679825
sI3119
F10.51683456545177
sI3120
F12.126272477885871
sI3121
F11.278974617498667
sI3122
F12.308594034679825
sI3123
F11.972121798058613
sI3124
F12.126272477885871
sI3125
F11.433125297325926
sI3126
F10.452296044314199
sI3127
F13.224884766553981
sI3128
F12.126272477885871
sI3129
F8.5661738136378585
sI3130
F13.918031947113926
sI3131
F9.0738448606553348
sI3132
F12.819419658445817
sI3133
F12.819419658445817
sI3134
F13.918031947113926
sI3135
F13.918031947113926
sI3137
F10.922299673559936
sI3138
F11.084818603057709
sI3139
F13.224884766553981
sI3140
F11.145443224874144
sI3141
F11.209981746011715
sI3142
F11.209981746011715
sI3143
F5.959105454063816
sI3144
F11.209981746011715
sI3145
F13.918031947113926
sI3146
F13.224884766553981
sI3147
F13.224884766553981
sI3148
F13.224884766553981
sI3149
F10.204459880409619
sI3150
F10.550736117127451
sI3152
F9.6695367050645675
sI3153
F13.224884766553981
sI3154
F13.224884766553981
sI3155
F13.918031947113926
sI3156
F11.615446854119879
sI3161
F7.7568246254188491
sI3163
F7.8897534268832272
sI3164
F11.433125297325926
sI3166
F9.2085017458015912
sI3167
F9.1644417560075606
sI3168
F9.9477400335618036
sI3169
F9.9667882285324989
sI3170
F10.452296044314199
sI3171
F9.6695367050645675
sI3172
F9.1906441284015852
sI3173
F10.973592967947486
sI3174
F9.7908975620688334
sI3175
F10.484044742628779
sI3176
F10.28044578738754
sI3177
F8.4542001420883164
sI3178
F8.34208284396761
sI3179
F11.720807369777706
sI3180
F8.2109216823650506
sI3181
F8.8181655192897281
sI3182
F10.585827436938722
sI3183
F9.9862063143895998
sI3184
F11.972121798058613
sI3185
F9.0660016831943082
sI3186
F12.126272477885871
sI3188
F11.615446854119879
sI3189
F12.819419658445817
sI3190
F11.972121798058613
sI3191
F12.819419658445817
sI3192
F11.433125297325926
sI3195
F11.520136674315555
sI3196
F11.972121798058613
sI3197
F11.520136674315555
sI3198
F10.782537731184776
sI3199
F13.918031947113926
sI3200
F11.278974617498667
sI3201
F11.278974617498667
sI3202
F13.224884766553981
sI3203
F10.00600894168578
sI3204
F11.83859040543409
sI3205
F10.585827436938722
sI3206
F12.126272477885871
sI3207
F1.9282079276203377
sI3208
F8.0600987926304661
sI3211
F9.1558580123161697
sI3214
F12.819419658445817
sI3217
F8.1879321641403511
sI3218
F7.9043167910711238
sI3220
F10.922299673559936
sI3221
F7.9518852079902338
sI3222
F3.4571310301975751
sI3225
F11.720807369777706
sI3226
F10.585827436938722
sI3227
F3.4571310301975751
sI3228
F7.6008672603666421
sI3229
F9.4406951326357191
sI3231
F12.819419658445817
sI3232
F5.4498189379194066
sI3233
F8.7763683906112657
sI3234
F8.0773902897405279
sI3235
F9.5613231204243334
sI3236
F11.972121798058613
sI3237
F5.8260984911340321
sI3238
F7.9416810378159921
sI3241
F11.520136674315555
sI3252
F12.819419658445817
sI3254
F10.739978116765981
sI3255
F13.918031947113926
sI3256
F9.2930591338296544
sI3257
F9.6553520700726096
sI3260
F10.922299673559936
sI3261
F10.922299673559936
sI3263
F11.720807369777706
sI3264
F11.720807369777706
sI3265
F11.433125297325926
sI3266
F13.918031947113926
sI3267
F12.819419658445817
sI3268
F10.699156122245725
sI3269
F10.699156122245725
sI3270
F10.484044742628779
sI3271
F12.819419658445817
sI3273
F12.819419658445817
sI3276
F10.873509509390503
sI3277
F10.699156122245725
sI3278
F11.972121798058613
sI3281
F12.308594034679825
sI3282
F13.918031947113926
sI3283
F13.918031947113926
sI3284
F13.224884766553981
sI3285
F11.278974617498667
sI3286
F12.531737585994035
sI3288
F13.224884766553981
sI3289
F13.224884766553981
sI3290
F11.720807369777706
sI3293
F12.126272477885871
sI3294
F12.531737585994035
sI3295
F10.922299673559936
sI3297
F12.819419658445817
sI3299
F9.4991913393173277
sI3300
F10.873509509390503
sI3302
F13.224884766553981
sI3303
F12.308594034679825
sI3304
F12.819419658445817
sI3306
F12.819419658445817
sI3308
F12.819419658445817
sI3309
F5.6284924624897839
sI3312
F11.520136674315555
sI3313
F12.126272477885871
sI3314
F11.520136674315555
sI3316
F10.421524385647446
sI3318
F10.391671422497764
sI3319
F11.720807369777706
sI3320
F9.857588936567506
sI3322
F13.918031947113926
sI3323
F10.334513008657815
sI3325
F12.126272477885871
sI3326
F11.145443224874144
sI3328
F11.83859040543409
sI3329
F12.531737585994035
sI3330
F10.873509509390503
sI3331
F9.8071580829406138
sI3332
F11.972121798058613
sI3333
F11.972121798058613
sI3334
F10.484044742628779
sI3336
F12.308594034679825
sI3337
F12.126272477885871
sI3338
F12.819419658445817
sI3339
F12.308594034679825
sI3340
F12.819419658445817
sI3341
F10.922299673559936
sI3342
F13.918031947113926
sI3344
F11.615446854119879
sI3346
F11.615446854119879
sI3350
F12.531737585994035
sI3351
F13.224884766553981
sI3353
F12.531737585994035
sI3355
F8.0045289414756553
sI3356
F8.5427535394297607
sI3357
F8.9208196733498113
sI3358
F13.918031947113926
sI3359
F11.145443224874144
sI3360
F11.972121798058613
sI3361
F13.918031947113926
sI3363
F13.918031947113926
sI3364
F13.918031947113926
sI3366
F8.3196099881155519
sI3367
F13.224884766553981
sI3369
F11.027660189217761
sI3370
F13.918031947113926
sI3374
F12.308594034679825
sI3375
F13.224884766553981
sI3377
F11.084818603057709
sI3378
F10.739978116765981
sI3379
F12.308594034679825
sI3381
F12.531737585994035
sI3382
F12.126272477885871
sI3383
F13.918031947113926
sI3387
F13.224884766553981
sI3388
F13.918031947113926
sI3389
F13.918031947113926
sI3392
F12.126272477885871
sI3394
F13.918031947113926
sI3395
F13.918031947113926
sI3396
F13.918031947113926
sI3397
F13.918031947113926
sI3398
F13.918031947113926
sI3402
F13.918031947113926
sI3404
F13.918031947113926
sI3410
F13.224884766553981
sI3414
F12.819419658445817
sI3419
F13.224884766553981
sI3421
F13.918031947113926
sI3422
F13.918031947113926
sI3424
F13.918031947113926
sI3425
F12.531737585994035
sI3428
F13.918031947113926
sI3429
F11.972121798058613
sI3432
F13.224884766553981
sI3433
F12.308594034679825
sI3434
F10.739978116765981
sI3435
F13.224884766553981
sI3436
F13.918031947113926
sI3437
F12.819419658445817
sI3438
F10.782537731184776
sI3439
F11.972121798058613
sI3440
F13.918031947113926
sI3442
F12.531737585994035
sI3444
F11.278974617498667
sI3445
F12.531737585994035
sI3447
F12.308594034679825
sI3450
F12.531737585994035
sI3454
F9.9106987618814557
sI3455
F13.918031947113926
sI3456
F12.819419658445817
sI3462
F13.224884766553981
sI3464
F13.224884766553981
sI3465
F13.918031947113926
sI3466
F11.433125297325926
sI3468
F13.224884766553981
sI3469
F10.089390550624831
sI3470
F13.224884766553981
sI3471
F13.224884766553981
sI3472
F13.918031947113926
sI3473
F12.308594034679825
sI3474
F13.918031947113926
sI3476
F12.531737585994035
sI3478
F13.224884766553981
sI3479
F13.224884766553981
sI3481
F6.3151314849091706
sI3482
F11.972121798058613
sI3485
F9.9290479005496515
sI3486
F12.126272477885871
sI3487
F9.7591488637542536
sI3488
F9.5485840946469036
sI3489
F12.531737585994035
sI3490
F10.622195081109597
sI3491
F10.82698949375561
sI3492
F10.873509509390503
sI3493
F11.520136674315555
sI3494
F10.585827436938722
sI3495
F13.224884766553981
sI3496
F13.224884766553981
sI3497
F11.972121798058613
sI3498
F13.224884766553981
sI3500
F9.8749806792793748
sI3501
F11.83859040543409
sI3502
F10.484044742628779
sI3503
F13.918031947113926
sI3504
F11.83859040543409
sI3505
F13.918031947113926
sI3506
F9.7908975620688334
sI3507
F12.531737585994035
sI3508
F12.126272477885871
sI3509
F12.531737585994035
sI3510
F13.918031947113926
sI3511
F11.83859040543409
sI3512
F11.83859040543409
sI3513
F13.224884766553981
sI3514
F13.224884766553981
sI3515
F10.922299673559936
sI3516
F12.531737585994035
sI3517
F12.531737585994035
sI3518
F11.972121798058613
sI3519
F6.4130898787177548
sI3523
F9.9290479005496515
sI3524
F9.1730998187506749
sI3525
F9.8749806792793748
sI3526
F10.421524385647446
sI3527
F13.918031947113926
sI3528
F13.918031947113926
sI3529
F11.972121798058613
sI3530
F12.126272477885871
sI3531
F9.7908975620688334
sI3532
F4.7458088972508712
sI3533
F12.126272477885871
sI3534
F11.027660189217761
sI3535
F10.782537731184776
sI3536
F12.308594034679825
sI3537
F13.918031947113926
sI3538
F12.819419658445817
sI3540
F12.819419658445817
sI3541
F8.6348282183759366
sI3542
F12.531737585994035
sI3543
F10.922299673559936
sI3544
F13.918031947113926
sI3547
F10.51683456545177
sI3548
F11.720807369777706
sI3549
F7.0742819981077014
sI3550
F11.433125297325926
sI3551
F11.520136674315555
sI3552
F7.6527307343762159
sI3553
F9.1730998187506749
sI3554
F11.145443224874144
sI3555
F9.9862063143895998
sI3556
F9.2452031126520193
sI3559
F10.873509509390503
sI3560
F2.9847285681147766
sI3561
F8.0236291128490755
sI3562
F7.3222514331526138
sI3563
F10.133842313195665
sI3564
F13.918031947113926
sI3565
F10.922299673559936
sI3566
F9.4991913393173277
sI3567
F11.209981746011715
sI3568
F10.782537731184776
sI3569
F10.550736117127451
sI3570
F10.180362328830558
sI3571
F12.819419658445817
sI3572
F11.027660189217761
sI3573
F11.83859040543409
sI3574
F11.278974617498667
sI3575
F11.35308258965239
sI3576
F8.5335368843248371
sI3577
F11.433125297325926
sI3578
F8.962204889512666
sI3579
F10.622195081109597
sI3580
F10.550736117127451
sI3581
F10.659935409092444
sI3582
F11.35308258965239
sI3583
F9.7908975620688334
sI3584
F13.918031947113926
sI3586
F13.224884766553981
sI3588
F13.918031947113926
sI3589
F13.918031947113926
sI3593
F11.972121798058613
sI3594
F10.254470300984279
sI3595
F13.918031947113926
sI3596
F13.918031947113926
sI3597
F13.918031947113926
sI3599
F10.362683885624511
sI3600
F13.224884766553981
sI3601
F8.1342067647841887
sI3602
F5.6083550511261988
sI3603
F11.720807369777706
sI3604
F11.720807369777706
sI3605
F13.918031947113926
sI3606
F12.308594034679825
sI3608
F13.224884766553981
sI3609
F11.027660189217761
sI3610
F11.83859040543409
sI3611
F12.126272477885871
sI3612
F9.7591488637542536
sI3613
F10.307114034469702
sI3614
F10.82698949375561
sI3615
F11.35308258965239
sI3616
F9.3641550555133843
sI3617
F9.7748972207223925
sI3618
F9.9106987618814557
sI3619
F13.918031947113926
sI3620
F9.7133393277229594
sI3621
F10.550736117127451
sI3623
F11.35308258965239
sI3624
F13.224884766553981
sI3625
F11.520136674315555
sI3626
F12.308594034679825
sI3627
F13.918031947113926
sI3628
F11.972121798058613
sI3629
F12.819419658445817
sI3630
F13.918031947113926
sI3631
F12.308594034679825
sI3633
F12.308594034679825
sI3634
F10.254470300984279
sI3636
F10.82698949375561
sI3637
F10.362683885624511
sI3638
F11.972121798058613
sI3639
F8.0126700990593562
sI3640
F13.918031947113926
sI3641
F8.9073966530176705
sI3643
F11.972121798058613
sI3646
F13.224884766553981
sI3647
F12.819419658445817
sI3648
F10.362683885624511
sI3649
F12.126272477885871
sI3651
F9.6553520700726096
sI3652
F7.9752325719872248
sI3653
F6.7847359922178576
sI3654
F12.531737585994035
sI3655
F13.224884766553981
sI3656
F13.918031947113926
sI3658
F13.224884766553981
sI3659
F8.04591415763851
sI3660
F8.0126700990593562
sI3663
F5.1749788968892503
sI3664
F9.7908975620688334
sI3665
F13.224884766553981
sI3666
F13.918031947113926
sI3667
F13.918031947113926
sI3668
F11.83859040543409
sI3669
F12.819419658445817
sI3670
F12.819419658445817
sI3672
F11.972121798058613
sI3673
F11.084818603057709
sI3674
F12.531737585994035
sI3676
F11.615446854119879
sI3677
F13.918031947113926
sI3678
F6.8549837837257535
sI3679
F12.819419658445817
sI3680
F8.4584464329697671
sI3681
F9.8926802563787763
sI3682
F11.145443224874144
sI3683
F11.145443224874144
sI3684
F3.4634505295846099
sI3685
F11.972121798058613
sI3686
F5.6513535038080303
sI3687
F10.00600894168578
sI3688
F10.922299673559936
sI3690
F11.972121798058613
sI3692
F11.209981746011715
sI3693
F11.35308258965239
sI3694
F10.699156122245725
sI3695
F13.224884766553981
sI3696
F12.531737585994035
sI3697
F11.83859040543409
sI3698
F12.819419658445817
sI3699
F9.1305402043318793
sI3700
F12.308594034679825
sI3701
F10.699156122245725
sI3702
F11.83859040543409
sI3703
F6.4944635028547593
sI3704
F7.0173012830687531
sI3705
F8.2010042457077041
sI3706
F10.922299673559936
sI3708
F11.278974617498667
sI3709
F11.972121798058613
sI3710
F10.254470300984279
sI3711
F8.9980510212858
sI3712
F11.35308258965239
sI3713
F13.224884766553981
sI3714
F8.8060441587573823
sI3715
F9.9477400335618036
sI3716
F10.22915249299999
sI3717
F10.585827436938722
sI3718
F11.027660189217761
sI3719
F12.126272477885871
sI3720
F10.739978116765981
sI3722
F11.084818603057709
sI3723
F9.5872986068275949
sI3724
F9.4293955773817864
sI3725
F12.819419658445817
sI3726
F10.873509509390503
sI3728
F12.126272477885871
sI3729
F11.83859040543409
sI3730
F10.739978116765981
sI3731
F12.126272477885871
sI3732
F11.83859040543409
sI3733
F12.819419658445817
sI3734
F13.224884766553981
sI3737
F11.278974617498667
sI3738
F10.739978116765981
sI3739
F6.253216161828191
sI3740
F10.550736117127451
sI3741
F9.7436446772182883
sI3742
F10.484044742628779
sI3743
F11.520136674315555
sI3744
F7.8358130367374796
sI3745
F11.520136674315555
sI3746
F7.939146182212804
sI3748
F9.8926802563787763
sI3749
F10.28044578738754
sI3751
F12.819419658445817
sI3754
F8.6097642497127218
sI3755
F6.9691347248006137
sI3756
F8.4756142365921328
sI3757
F10.659935409092444
sI3759
F8.7418822145400963
sI3760
F10.585827436938722
sI3762
F5.8028099745515966
sI3764
F9.8926802563787763
sI3765
F11.83859040543409
sI3766
F12.308594034679825
sI3768
F8.9344253254055896
sI3769
F9.6005438335776159
sI3770
F6.6568068551420048
sI3771
F4.8635270066958709
sI3772
F8.3650723621923078
sI3773
F9.1730998187506749
sI3774
F12.308594034679825
sI3776
F10.922299673559936
sI3777
F13.918031947113926
sI3778
F11.027660189217761
sI3779
F9.020192147163014
sI3780
F11.83859040543409
sI3781
F12.126272477885871
sI3782
F12.819419658445817
sI3783
F12.308594034679825
sI3784
F12.308594034679825
sI3785
F13.224884766553981
sI3787
F10.026211649003299
sI3788
F9.4521238284593423
sI3789
F7.9416810378159921
sI3790
F10.067884345403867
sI3791
F9.9477400335618036
sI3792
F9.0053770613778745
sI3793
F12.308594034679825
sI3794
F7.8945843541528928
sI3795
F11.433125297325926
sI3796
F8.2344521797752446
sI3797
F8.6762849320542834
sI3798
F12.531737585994035
sI3799
F11.615446854119879
sI3800
F13.918031947113926
sI3802
F8.7418822145400963
sI3803
F9.8236873848918247
sI3804
F9.5360053124400448
sI3805
F7.3988846591735298
sI3806
F7.5654025507943592
sI3807
F10.82698949375561
sI3808
F10.156831831420364
sI3809
F9.9290479005496515
sI3810
F12.126272477885871
sI3811
F9.4406951326357191
sI3813
F9.7436446772182883
sI3814
F8.8428581318800994
sI3815
F11.615446854119879
sI3816
F12.819419658445817
sI3817
F11.83859040543409
sI3818
F9.6985242419378181
sI3819
F12.819419658445817
sI3820
F12.819419658445817
sI3823
F7.8777772358365121
sI3827
F13.918031947113926
sI3830
F8.1465908239839102
sI3832
F11.433125297325926
sI3834
F12.531737585994035
sI3839
F11.35308258965239
sI3840
F10.973592967947486
sI3843
F13.224884766553981
sI3846
F13.918031947113926
sI3847
F12.308594034679825
sI3856
F11.520136674315555
sI3857
F12.126272477885871
sI3858
F11.433125297325926
sI3859
F13.918031947113926
sI3860
F13.918031947113926
sI3861
F13.918031947113926
sI3863
F13.918031947113926
sI3869
F11.720807369777706
sI3870
F12.819419658445817
sI3878
F13.918031947113926
sI3879
F11.972121798058613
sI3880
F9.9106987618814557
sI3881
F10.452296044314199
sI3882
F13.918031947113926
sI3890
F12.819419658445817
sI3893
F11.027660189217761
sI3894
F12.819419658445817
sI3903
F12.819419658445817
sI3905
F13.918031947113926
sI3907
F13.224884766553981
sI3908
F13.918031947113926
sI3935
F12.819419658445817
sI3941
F13.918031947113926
sI3947
F12.308594034679825
sI3960
F13.224884766553981
sI3972
F12.531737585994035
sI3973
F12.531737585994035
sI3975
F11.972121798058613
sI3979
F13.918031947113926
sI3980
F13.918031947113926
sI3982
F13.918031947113926
sI3997
F13.918031947113926
sI4013
F12.819419658445817
sI4019
F13.224884766553981
sI4023
F12.126272477885871
sI4026
F13.918031947113926
sI4028
F13.918031947113926
sI4031
F12.819419658445817
sI4032
F11.520136674315555
sI4055
F12.819419658445817
sI4056
F12.531737585994035
sI4058
F12.531737585994035
sI4059
F13.918031947113926
sI4060
F13.224884766553981
sI4062
F13.918031947113926
sI4064
F13.918031947113926
sI4065
F13.224884766553981
sI4069
F13.918031947113926
sI4070
F13.224884766553981
sI4071
F13.918031947113926
sI4074
F13.918031947113926
sI4081
F10.204459880409619
sI4086
F13.918031947113926
sI4100
F12.531737585994035
sI4101
F12.819419658445817
sI4124
F13.918031947113926
sI4128
F11.720807369777706
sI4129
F13.224884766553981
sI4131
F13.918031947113926
sI4132
F12.819419658445817
sI4133
F13.918031947113926
sI4135
F13.224884766553981
sI4136
F13.918031947113926
sI4139
F13.224884766553981
sI4143
F13.918031947113926
sI4149
F13.918031947113926
sI4155
F13.918031947113926
sI4164
F13.918031947113926
sI4166
F12.126272477885871
sI4170
F10.922299673559936
sI4177
F12.819419658445817
sI4179
F13.224884766553981
sI4180
F13.224884766553981
sI4191
F13.224884766553981
sI4193
F13.918031947113926
sI4194
F13.918031947113926
sI4201
F10.484044742628779
sI4206
F13.918031947113926
sI4207
F13.918031947113926
sI4208
F13.224884766553981
sI4209
F12.819419658445817
sI4210
F12.126272477885871
sI4214
F11.972121798058613
sI4222
F13.918031947113926
sI4231
F12.126272477885871
sI4232
F13.918031947113926
sI4235
F13.224884766553981
sI4236
F13.918031947113926
sI4243
F12.531737585994035
sI4245
F13.918031947113926
sI4246
F12.819419658445817
sI4249
F6.5928829891583502
sI4250
F11.35308258965239
sI4251
F8.3122298808179291
sI4252
F12.126272477885871
sI4253
F10.334513008657815
sI4255
F12.531737585994035
sI4257
F12.531737585994035
sI4258
F10.922299673559936
sI4259
F12.126272477885871
sI4260
F11.520136674315555
sI4261
F12.819419658445817
sI4263
F13.224884766553981
sI4265
F13.224884766553981
sI4266
F11.278974617498667
sI4267
F10.180362328830558
sI4268
F12.308594034679825
sI4269
F13.918031947113926
sI4270
F11.027660189217761
sI4271
F13.918031947113926
sI4272
F13.918031947113926
sI4273
F12.531737585994035
sI4274
F11.972121798058613
sI4275
F11.83859040543409
sI4276
F12.531737585994035
sI4278
F12.819419658445817
sI4280
F8.6399172878834083
sI4281
F13.918031947113926
sI4283
F13.918031947113926
sI4286
F12.819419658445817
sI4287
F13.918031947113926
sI4288
F10.82698949375561
sI4289
F13.918031947113926
sI4290
F12.819419658445817
sI4291
F10.973592967947486
sI4294
F13.224884766553981
sI4295
F13.224884766553981
sI4297
F13.918031947113926
sI4298
F11.720807369777706
sI4299
F13.918031947113926
sI4302
F6.8592737945952615
sI4303
F7.8426859160252418
sI4304
F9.1305402043318793
sI4305
F9.9290479005496515
sI4306
F10.026211649003299
sI4307
F10.782537731184776
sI4309
F13.918031947113926
sI4311
F9.8071580829406138
sI4312
F9.8071580829406138
sI4315
F12.126272477885871
sI4316
F13.918031947113926
sI4318
F10.421524385647446
sI4322
F8.8746068301946792
sI4323
F10.334513008657815
sI4324
F9.6985242419378181
sI4325
F9.6413658280978698
sI4326
F10.622195081109597
sI4327
F9.2452031126520193
sI4328
F10.82698949375561
sI4329
F8.9907782619567218
sI4330
F10.973592967947486
sI4331
F12.819419658445817
sI4332
F9.0738448606553348
sI4333
F8.7647403526161476
sI4334
F11.433125297325926
sI4335
F11.027660189217761
sI4336
F8.3345356383322269
sI4337
F11.433125297325926
sI4339
F13.918031947113926
sI4340
F11.972121798058613
sI4341
F13.224884766553981
sI4342
F7.7380152934613529
sI4343
F13.224884766553981
sI4344
F12.819419658445817
sI4345
F6.8933829166602898
sI4346
F10.82698949375561
sI4347
F11.615446854119879
sI4348
F11.027660189217761
sI4349
F10.421524385647446
sI4350
F9.3854324539606697
sI4351
F10.739978116765981
sI4352
F10.452296044314199
sI4353
F10.51683456545177
sI4354
F9.3330644684433537
sI4355
F10.046830936206035
sI4356
F9.8071580829406138
sI4357
F13.224884766553981
sI4358
F13.224884766553981
sI4359
F8.1782390349346912
sI4361
F6.8644462199202492
sI4363
F11.278974617498667
sI4364
F11.720807369777706
sI4365
F7.9752325719872248
sI4367
F9.3128617611258342
sI4368
F9.7908975620688334
sI4369
F10.254470300984279
sI4370
F11.084818603057709
sI4371
F12.126272477885871
sI4373
F10.782537731184776
sI4374
F11.83859040543409
sI4375
F11.209981746011715
sI4376
F13.918031947113926
sI4377
F11.278974617498667
sI4378
F11.027660189217761
sI4381
F12.308594034679825
sI4382
F10.51683456545177
sI4385
F13.918031947113926
sI4387
F11.084818603057709
sI4388
F13.918031947113926
sI4389
F13.918031947113926
sI4390
F10.391671422497764
sI4391
F6.4364762452044095
sI4397
F11.084818603057709
sI4398
F11.084818603057709
sI4400
F4.6594730028672684
sI4402
F7.6413884577722815
sI4403
F7.6413884577722815
sI4404
F7.6546336845223024
sI4405
F11.520136674315555
sI4408
F12.126272477885871
sI4414
F13.224884766553981
sI4418
F12.819419658445817
sI4423
F12.819419658445817
sI4425
F13.224884766553981
sI4427
F13.918031947113926
sI4428
F13.918031947113926
sI4431
F11.615446854119879
sI4432
F12.819419658445817
sI4434
F13.918031947113926
sI4435
F10.550736117127451
sI4436
F8.8304356118815424
sI4437
F11.35308258965239
sI4438
F12.308594034679825
sI4439
F8.9482186475379244
sI4441
F9.7133393277229594
sI4443
F10.452296044314199
sI4444
F9.0660016831943082
sI4445
F12.308594034679825
sI4447
F11.972121798058613
sI4448
F11.209981746011715
sI4449
F11.145443224874144
sI4450
F10.873509509390503
sI4451
F12.819419658445817
sI4454
F10.585827436938722
sI4455
F12.308594034679825
sI4456
F11.145443224874144
sI4457
F11.027660189217761
sI4458
F11.027660189217761
sI4459
F12.126272477885871
sI4460
F12.531737585994035
sI4461
F12.819419658445817
sI4462
F12.126272477885871
sI4463
F8.0773902897405279
sI4464
F9.9667882285324989
sI4465
F11.520136674315555
sI4466
F12.308594034679825
sI4467
F10.51683456545177
sI4468
F8.7250750962237156
sI4469
F11.433125297325926
sI4470
F7.7442458432119894
sI4471
F9.2545928530018582
sI4472
F7.3168018283850493
sI4473
F6.1310649444990544
sI4474
F11.35308258965239
sI4475
F9.9862063143895998
sI4476
F11.720807369777706
sI4478
F11.972121798058613
sI4479
F10.046830936206035
sI4480
F11.520136674315555
sI4481
F10.699156122245725
sI4482
F13.918031947113926
sI4483
F9.8404945032082072
sI4484
F7.0427998598373485
sI4485
F10.739978116765981
sI4486
F10.391671422497764
sI4487
F13.224884766553981
sI4488
F12.308594034679825
sI4489
F11.278974617498667
sI4490
F13.224884766553981
sI4491
F11.83859040543409
sI4492
F11.83859040543409
sI4493
F12.819419658445817
sI4494
F10.973592967947486
sI4495
F13.918031947113926
sI4496
F10.026211649003299
sI4497
F9.6553520700726096
sI4498
F6.8748720311255855
sI4499
F11.433125297325926
sI4501
F12.308594034679825
sI4502
F9.4872151482706126
sI4504
F10.28044578738754
sI4506
F9.627572505965535
sI4507
F10.659935409092444
sI4508
F9.1222414015171847
sI4509
F11.278974617498667
sI4510
F12.819419658445817
sI4511
F11.972121798058613
sI4512
F9.4293955773817864
sI4513
F8.5804938674126081
sI4514
F7.8358130367374796
sI4515
F8.8554369140869582
sI4516
F9.8926802563787763
sI4517
F12.531737585994035
sI4519
F13.918031947113926
sI4520
F13.918031947113926
sI4521
F11.83859040543409
sI4522
F11.720807369777706
sI4523
F11.720807369777706
sI4524
F11.433125297325926
sI4525
F9.4872151482706126
sI4526
F11.615446854119879
sI4527
F10.782537731184776
sI4528
F13.224884766553981
sI4529
F12.531737585994035
sI4530
F13.224884766553981
sI4531
F11.084818603057709
sI4533
F13.918031947113926
sI4534
F13.918031947113926
sI4535
F11.972121798058613
sI4536
F9.7748972207223925
sI4538
F9.0127571686754955
sI4539
F10.739978116765981
sI4541
F8.323320567512086
sI4542
F13.918031947113926
sI4544
F7.8312572202016186
sI4545
F10.51683456545177
sI4546
F13.224884766553981
sI4547
F10.180362328830558
sI4548
F12.819419658445817
sI4549
F12.819419658445817
sI4550
F11.520136674315555
sI4551
F11.209981746011715
sI4552
F11.83859040543409
sI4553
F10.82698949375561
sI4554
F12.819419658445817
sI4556
F12.819419658445817
sI4558
F13.918031947113926
sI4559
F12.531737585994035
sI4560
F13.224884766553981
sI4561
F11.433125297325926
sI4562
F13.224884766553981
sI4563
F11.209981746011715
sI4564
F12.126272477885871
sI4565
F8.7705374703004733
sI4566
F8.6197145805658888
sI4567
F7.3555878534202064
sI4568
F12.126272477885871
sI4569
F12.126272477885871
sI4571
F6.7334027943966115
sI4572
F8.9482186475379244
sI4573
F7.7568246254188491
sI4574
F8.5153545652416458
sI4575
F10.391671422497764
sI4576
F12.308594034679825
sI4577
F11.35308258965239
sI4578
F8.0687071671670658
sI4579
F9.3962433700648855
sI4580
F8.5427535394297607
sI4593
F11.35308258965239
sI4595
F10.111369457343606
sI4596
F13.224884766553981
sI4598
F11.520136674315555
sI4599
F11.615446854119879
sI4600
F11.209981746011715
sI4601
F11.209981746011715
sI4602
F12.819419658445817
sI4603
F11.972121798058613
sI4605
F11.520136674315555
sI4606
F11.35308258965239
sI4607
F11.433125297325926
sI4608
F10.973592967947486
sI4609
F9.5872986068275949
sI4610
F9.5235827924414878
sI4611
F9.857588936567506
sI4613
F9.8236873848918247
sI4614
F12.819419658445817
sI4616
F13.918031947113926
sI4617
F12.126272477885871
sI4618
F8.4584464329697671
sI4619
F10.973592967947486
sI4620
F13.224884766553981
sI4621
F9.0582195427522532
sI4622
F5.8974327972169549
sI4623
F12.126272477885871
sI4624
F12.531737585994035
sI4626
F12.531737585994035
sI4627
F12.308594034679825
sI4629
F13.224884766553981
sI4630
F12.308594034679825
sI4641
F9.627572505965535
sI4643
F13.224884766553981
sI4645
F13.224884766553981
sI4647
F12.531737585994035
sI4650
F13.918031947113926
sI4654
F13.918031947113926
sI4660
F13.918031947113926
sI4663
F13.918031947113926
sI4666
F13.918031947113926
sI4667
F13.918031947113926
sI4672
F12.819419658445817
sI4685
F13.224884766553981
sI4686
F13.918031947113926
sI4688
F12.531737585994035
sI4689
F12.819419658445817
sI4692
F13.918031947113926
sI4695
F13.918031947113926
sI4696
F13.918031947113926
sI4697
F8.4457612734424519
sI4698
F8.7881332321908516
sI4699
F9.5485840946469036
sI4700
F9.5485840946469036
sI4701
F9.1644417560075606
sI4702
F10.307114034469702
sI4703
F10.421524385647446
sI4705
F12.126272477885871
sI4706
F12.126272477885871
sI4709
F12.819419658445817
sI4710
F10.362683885624511
sI4711
F9.3433209686105432
sI4712
F9.7133393277229594
sI4714
F13.918031947113926
sI4715
F10.659935409092444
sI4716
F11.972121798058613
sI4717
F7.5177745018051052
sI4718
F11.35308258965239
sI4719
F12.819419658445817
sI4722
F10.307114034469702
sI4723
F9.8749806792793748
sI4724
F11.145443224874144
sI4725
F10.782537731184776
sI4726
F12.819419658445817
sI4727
F11.83859040543409
sI4728
F12.531737585994035
sI4729
F12.819419658445817
sI4730
F13.918031947113926
sI4731
F10.156831831420364
sI4732
F11.720807369777706
sI4733
F10.362683885624511
sI4734
F9.1644417560075606
sI4735
F8.7306461412731711
sI4736
F13.918031947113926
sI4738
F11.615446854119879
sI4740
F13.918031947113926
sI4741
F13.918031947113926
sI4742
F6.1545855583865636
sI4743
F11.972121798058613
sI4745
F11.83859040543409
sI4746
F9.2545928530018582
sI4747
F9.4406951326357191
sI4748
F10.204459880409619
sI4749
F10.922299673559936
sI4750
F10.046830936206035
sI4751
F11.972121798058613
sI4752
F7.111202586721749
sI4753
F13.224884766553981
sI4754
F12.531737585994035
sI4755
F10.922299673559936
sI4757
F9.105847591741508
sI4758
F10.180362328830558
sI4759
F9.1140109023806684
sI4760
F9.5360053124400448
sI4761
F13.918031947113926
sI4762
F13.918031947113926
sI4763
F13.918031947113926
sI4764
F9.4293955773817864
sI4765
F7.7134741845452357
sI4766
F8.149710951320154
sI4767
F8.8000381346971714
sI4768
F10.585827436938722
sI4769
F6.8774955568979701
sI4770
F13.224884766553981
sI4771
F13.224884766553981
sI4772
F12.819419658445817
sI4773
F8.8120864732133448
sI4774
F11.520136674315555
sI4776
F8.0045289414756553
sI4777
F6.9548419612436883
sI4778
F9.6553520700726096
sI4779
F9.5113126998496735
sI4780
F5.8019135155045598
sI4781
F5.7921051444060394
sI4782
F13.918031947113926
sI4783
F9.6695367050645675
sI4784
F9.2452031126520193
sI4785
F12.531737585994035
sI4787
F9.1140109023806684
sI4788
F11.520136674315555
sI4789
F7.5362159297078275
sI4790
F10.82698949375561
sI4791
F13.224884766553981
sI4792
F12.819419658445817
sI4795
F8.8875940257214907
sI4796
F13.224884766553981
sI4797
F12.531737585994035
sI4799
F11.209981746011715
sI4800
F12.308594034679825
sI4801
F11.972121798058613
sI4802
F10.659935409092444
sI4803
F9.5235827924414878
sI4804
F11.83859040543409
sI4805
F13.918031947113926
sI4806
F9.8236873848918247
sI4807
F10.307114034469702
sI4808
F12.531737585994035
sI4809
F12.531737585994035
sI4810
F8.2412781448456442
sI4811
F11.83859040543409
sI4813
F12.819419658445817
sI4814
F12.819419658445817
sI4816
F13.918031947113926
sI4817
F11.35308258965239
sI4819
F13.224884766553981
sI4820
F11.35308258965239
sI4821
F11.520136674315555
sI4822
F11.209981746011715
sI4826
F13.224884766553981
sI4827
F12.819419658445817
sI4828
F13.918031947113926
sI4829
F12.819419658445817
sI4830
F13.224884766553981
sI4832
F11.278974617498667
sI4833
F9.7748972207223925
sI4834
F11.720807369777706
sI4836
F13.224884766553981
sI4837
F11.027660189217761
sI4839
F12.531737585994035
sI4842
F11.35308258965239
sI4846
F11.972121798058613
sI4848
F12.126272477885871
sI4852
F9.1389084540023973
sI4853
F8.6348282183759366
sI4854
F11.972121798058613
sI4855
F11.520136674315555
sI4856
F13.224884766553981
sI4857
F9.9290479005496515
sI4858
F11.084818603057709
sI4860
F11.084818603057709
sI4867
F10.782537731184776
sI4868
F10.22915249299999
sI4869
F11.83859040543409
sI4870
F11.145443224874144
sI4871
F11.145443224874144
sI4873
F10.873509509390503
sI4874
F10.739978116765981
sI4875
F12.531737585994035
sI4876
F13.918031947113926
sI4877
F12.819419658445817
sI4878
F13.918031947113926
sI4879
F13.224884766553981
sI4880
F13.918031947113926
sI4881
F11.209981746011715
sI4882
F13.918031947113926
sI4883
F13.918031947113926
sI4885
F10.067884345403867
sI4886
F12.531737585994035
sI4887
F11.35308258965239
sI4888
F11.209981746011715
sI4889
F12.531737585994035
sI4894
F13.918031947113926
sI4897
F9.4406951326357191
sI4900
F12.819419658445817
sI4901
F9.199533075818831
sI4903
F13.224884766553981
sI4905
F12.819419658445817
sI4914
F12.819419658445817
sI4915
F12.819419658445817
sI4924
F9.0276828188921723
sI4929
F10.28044578738754
sI4937
F13.918031947113926
sI4938
F13.918031947113926
sI4942
F12.531737585994035
sI4944
F10.622195081109597
sI4946
F12.819419658445817
sI4947
F13.918031947113926
sI4951
F11.83859040543409
sI4953
F13.918031947113926
sI4954
F9.264071596956402
sI4956
F12.308594034679825
sI4957
F13.918031947113926
sI4958
F11.084818603057709
sI4959
F13.918031947113926
sI4960
F13.918031947113926
sI4961
F13.224884766553981
sI4962
F13.918031947113926
sI4963
F12.126272477885871
sI4968
F13.224884766553981
sI4971
F12.531737585994035
sI4972
F11.520136674315555
sI4978
F12.819419658445817
sI4984
F13.918031947113926
sI4992
F11.83859040543409
sI4993
F12.308594034679825
sI4994
F13.918031947113926
sI4995
F13.224884766553981
sI4996
F11.720807369777706
sI4997
F12.819419658445817
sI4999
F12.819419658445817
sI5000
F12.819419658445817
sI5002
F12.531737585994035
sI5003
F10.254470300984279
sI5005
F10.22915249299999
sI5008
F13.918031947113926
sI5009
F12.819419658445817
sI5011
F8.7140252600371308
sI5012
F8.7250750962237156
sI5013
F10.00600894168578
sI5014
F13.918031947113926
sI5015
F7.6797073220744183
sI5016
F13.224884766553981
sI5017
F13.918031947113926
sI5019
F10.180362328830558
sI5020
F12.531737585994035
sI5021
F9.8404945032082072
sI5022
F11.145443224874144
sI5024
F13.918031947113926
sI5025
F12.531737585994035
sI5027
F13.224884766553981
sI5028
F10.550736117127451
sI5030
F12.126272477885871
sI5031
F13.918031947113926
sI5032
F12.126272477885871
sI5033
F9.2359007199897061
sI5034
F11.278974617498667
sI5035
F10.391671422497764
sI5036
F13.224884766553981
sI5037
F12.126272477885871
sI5038
F11.615446854119879
sI5039
F11.027660189217761
sI5040
F13.918031947113926
sI5041
F11.615446854119879
sI5042
F13.224884766553981
sI5043
F13.918031947113926
sI5044
F13.918031947113926
sI5045
F9.1558580123161697
sI5046
F8.9835580139832345
sI5047
F9.857588936567506
sI5049
F13.918031947113926
sI5050
F10.739978116765981
sI5051
F11.520136674315555
sI5052
F12.531737585994035
sI5054
F10.973592967947486
sI5055
F6.8713846692651703
sI5056
F9.5235827924414878
sI5057
F10.484044742628779
sI5058
F11.433125297325926
sI5059
F12.531737585994035
sI5060
F10.739978116765981
sI5061
F7.82898707166708
sI5062
F13.918031947113926
sI5063
F11.433125297325926
sI5064
F11.433125297325926
sI5066
F10.067884345403867
sI5067
F12.531737585994035
sI5068
F10.973592967947486
sI5069
F13.918031947113926
sI5070
F9.8236873848918247
sI5071
F10.659935409092444
sI5072
F13.918031947113926
sI5073
F10.452296044314199
sI5074
F13.918031947113926
sI5075
F11.278974617498667
sI5076
F12.819419658445817
sI5077
F13.224884766553981
sI5078
F13.224884766553981
sI5079
F13.918031947113926
sI5080
F13.918031947113926
sI5081
F11.720807369777706
sI5082
F12.126272477885871
sI5083
F8.1911841995267292
sI5084
F9.3433209686105432
sI5085
F10.334513008657815
sI5086
F11.520136674315555
sI5095
F13.224884766553981
sI5096
F13.918031947113926
sI5098
F13.918031947113926
sI5099
F5.6493001149961879
sI5100
F10.585827436938722
sI5101
F10.659935409092444
sI5102
F5.5676019735757905
sI5103
F13.224884766553981
sI5104
F11.83859040543409
sI5105
F11.027660189217761
sI5108
F12.126272477885871
sI5111
F11.027660189217761
sI5112
F11.720807369777706
sI5113
F11.720807369777706
sI5114
F13.918031947113926
sI5115
F13.918031947113926
sI5116
F11.615446854119879
sI5118
F11.084818603057709
sI5119
F9.6985242419378181
sI5120
F11.35308258965239
sI5121
F11.520136674315555
sI5123
F8.149710951320154
sI5124
F8.9907782619567218
sI5125
F12.531737585994035
sI5126
F12.531737585994035
sI5127
F12.126272477885871
sI5128
F12.126272477885871
sI5129
F12.819419658445817
sI5130
F11.520136674315555
sI5131
F13.224884766553981
sI5132
F13.918031947113926
sI5133
F13.918031947113926
sI5134
F11.972121798058613
sI5136
F10.22915249299999
sI5137
F13.918031947113926
sI5138
F12.531737585994035
sI5139
F11.145443224874144
sI5141
F13.918031947113926
sI5142
F10.362683885624511
sI5143
F11.972121798058613
sI5144
F11.209981746011715
sI5145
F11.720807369777706
sI5146
F11.720807369777706
sI5150
F11.972121798058613
sI5151
F11.615446854119879
sI5154
F10.254470300984279
sI5156
F13.918031947113926
sI5157
F13.224884766553981
sI5158
F10.22915249299999
sI5159
F12.531737585994035
sI5161
F13.918031947113926
sI5164
F12.819419658445817
sI5168
F11.433125297325926
sI5169
F13.918031947113926
sI5171
F13.918031947113926
sI5172
F13.918031947113926
sI5173
F11.520136674315555
sI5184
F11.433125297325926
sI5186
F11.209981746011715
sI5187
F11.83859040543409
sI5252
F12.308594034679825
sI5257
F13.224884766553981
sI5258
F11.972121798058613
sI5259
F9.9477400335618036
sI5260
F13.918031947113926
sI5261
F8.1782390349346912
sI5262
F12.126272477885871
sI5263
F10.585827436938722
sI5264
F12.308594034679825
sI5265
F13.918031947113926
sI5266
F11.720807369777706
sI5268
F12.308594034679825
sI5269
F10.180362328830558
sI5271
F10.973592967947486
sI5272
F11.520136674315555
sI5273
F9.6695367050645675
sI5278
F13.224884766553981
sI5280
F13.918031947113926
sI5281
F13.918031947113926
sI5282
F13.224884766553981
sI5284
F13.918031947113926
sI5288
F12.819419658445817
sI5290
F13.918031947113926
sI5293
F13.918031947113926
sI5297
F13.918031947113926
sI5300
F13.918031947113926
sI5303
F13.918031947113926
sI5304
F12.819419658445817
sI5306
F13.224884766553981
sI5309
F10.782537731184776
sI5310
F12.308594034679825
sI5312
F11.084818603057709
sI5313
F13.918031947113926
sI5314
F11.084818603057709
sI5317
F11.520136674315555
sI5319
F13.918031947113926
sI5320
F12.308594034679825
sI5324
F13.918031947113926
sI5330
F12.819419658445817
sI5335
F13.918031947113926
sI5340
F12.819419658445817
sI5343
F13.918031947113926
sI5344
F13.918031947113926
sI5345
F13.918031947113926
sI5350
F13.224884766553981
sI5352
F13.918031947113926
sI5356
F12.819419658445817
sI5357
F13.918031947113926
sI5358
F13.224884766553981
sI5359
F13.918031947113926
sI5361
F13.918031947113926
sI5366
F13.918031947113926
sI5367
F13.918031947113926
sI5369
F13.918031947113926
sI5370
F13.918031947113926
sI5372
F12.819419658445817
sI5374
F12.819419658445817
sI5375
F12.126272477885871
sI5376
F10.22915249299999
sI5380
F12.819419658445817
sI5382
F12.819419658445817
sI5386
F12.819419658445817
sI5387
F13.918031947113926
sI5389
F12.819419658445817
sI5390
F12.819419658445817
sI5399
F13.224884766553981
sI5400
F12.819419658445817
sI5401
F12.819419658445817
sI5402
F9.9290479005496515
sI5404
F13.918031947113926
sI5406
F13.918031947113926
sI5407
F13.918031947113926
sI5409
F12.308594034679825
sI5412
F12.819419658445817
sI5413
F12.819419658445817
sI5414
F13.224884766553981
sI5415
F12.126272477885871
sI5416
F11.027660189217761
sI5418
F11.83859040543409
sI5419
F13.918031947113926
sI5434
F11.972121798058613
sI5440
F13.918031947113926
sI5442
F13.918031947113926
sI5454
F12.819419658445817
sI5455
F10.585827436938722
sI5456
F12.308594034679825
sI5463
F12.819419658445817
sI5465
F12.531737585994035
sI5467
F13.918031947113926
sI5468
F13.224884766553981
sI5469
F13.224884766553981
sI5470
F13.918031947113926
sI5472
F13.224884766553981
sI5475
F12.819419658445817
sI5479
F13.918031947113926
sI5481
F12.819419658445817
sI5482
F13.918031947113926
sI5484
F13.224884766553981
sI5488
F13.918031947113926
sI5489
F12.819419658445817
sI5492
F13.918031947113926
sI5495
F13.918031947113926
sI5496
F11.615446854119879
sI5497
F11.278974617498667
sI5507
F13.224884766553981
sI5508
F13.918031947113926
sI5512
F13.918031947113926
sI5515
F13.918031947113926
sI5517
F13.918031947113926
sI5519
F12.531737585994035
sI5521
F13.918031947113926
sI5526
F13.918031947113926
sI5529
F13.224884766553981
sI5531
F13.224884766553981
sI5532
F13.224884766553981
sI5534
F13.918031947113926
sI5543
F13.918031947113926
sI5545
F13.918031947113926
sI5546
F13.918031947113926
sI5547
F13.918031947113926
sI5550
F12.819419658445817
sI5552
F13.918031947113926
sI5553
F12.819419658445817
sI5554
F13.918031947113926
sI5555
F13.224884766553981
sI5556
F13.918031947113926
sI5557
F12.819419658445817
sI5559
F13.224884766553981
sI5561
F13.224884766553981
sI5563
F13.918031947113926
sI5564
F13.918031947113926
sI5565
F13.918031947113926
sI5566
F12.819419658445817
sI5570
F13.918031947113926
sI5572
F12.819419658445817
sI5573
F12.308594034679825
sI5574
F10.156831831420364
sI5575
F12.531737585994035
sI5576
F13.224884766553981
sI5577
F13.224884766553981
sI5578
F10.699156122245725
sI5579
F10.659935409092444
sI5580
F13.224884766553981
sI5581
F11.35308258965239
sI5585
F13.918031947113926
sI5586
F13.918031947113926
sI5587
F13.918031947113926
sI5588
F13.918031947113926
sI5589
F9.105847591741508
sI5590
F11.278974617498667
sI5591
F11.615446854119879
sI5592
F10.739978116765981
sI5593
F10.739978116765981
sI5594
F11.278974617498667
sI5595
F10.659935409092444
sI5596
F12.819419658445817
sI5597
F12.308594034679825
sI5600
F13.918031947113926
sI5601
F9.1140109023806684
sI5602
F9.3229120969793353
sI5603
F8.1559805643337491
sI5604
F9.8926802563787763
sI5605
F13.918031947113926
sI5606
F12.819419658445817
sI5607
F12.819419658445817
sI5615
F12.531737585994035
sI5616
F12.531737585994035
sI5619
F13.918031947113926
sI5620
F13.918031947113926
sI5623
F13.918031947113926
sI5626
F13.918031947113926
sI5629
F12.126272477885871
sI5632
F11.720807369777706
sI5635
F12.819419658445817
sI5636
F13.918031947113926
sI5637
F13.224884766553981
sI5638
F12.308594034679825
sI5639
F11.520136674315555
sI5640
F9.418222276783661
sI5641
F6.0289475400784118
sI5642
F10.391671422497764
sI5643
F11.35308258965239
sI5644
F12.531737585994035
sI5645
F13.224884766553981
sI5646
F12.531737585994035
sI5648
F10.452296044314199
sI5649
F9.7591488637542536
sI5650
F12.308594034679825
sI5651
F12.126272477885871
sI5677
F12.126272477885871
sI5685
F13.918031947113926
sI5695
F13.224884766553981
sI5711
F13.918031947113926
sI5712
F11.145443224874144
sI5713
F11.972121798058613
sI5714
F7.5111519610446109
sI5718
F12.126272477885871
sI5722
F13.224884766553981
sI5723
F11.720807369777706
sI5724
F11.520136674315555
sI5725
F12.308594034679825
sI5726
F12.126272477885871
sI5727
F11.027660189217761
sI5728
F11.278974617498667
sI5729
F10.82698949375561
sI5730
F11.83859040543409
sI5731
F13.224884766553981
sI5732
F13.918031947113926
sI5733
F11.972121798058613
sI5735
F11.433125297325926
sI5736
F8.8000381346971714
sI5737
F8.6553417582090404
sI5738
F11.83859040543409
sI5739
F10.111369457343606
sI5740
F11.278974617498667
sI5741
F13.918031947113926
sI5742
F10.873509509390503
sI5743
F12.819419658445817
sI5786
F13.918031947113926
sI5790
F13.224884766553981
sI5798
F13.918031947113926
sI5841
F10.973592967947486
sI5892
F13.918031947113926
sI5921
F11.720807369777706
sI5922
F9.9290479005496515
sI5923
F10.922299673559936
sI5924
F8.3458779149361622
sI5925
F12.126272477885871
sI5926
F9.0582195427522532
sI5927
F9.9477400335618036
sI5928
F11.83859040543409
sI5929
F8.6605365750861445
sI5930
F12.819419658445817
sI5931
F8.1311345657472174
sI5932
F12.531737585994035
sI5933
F8.4373930237719339
sI5934
F9.6985242419378181
sI5935
F10.111369457343606
sI5936
F9.6413658280978698
sI5937
F9.4293955773817864
sI5938
F11.520136674315555
sI5939
F13.224884766553981
sI5940
F12.531737585994035
sI5941
F8.8810793447002965
sI5942
F8.2690577089527206
sI5943
F9.4991913393173277
sI5944
F8.1219741963485532
sI5945
F10.307114034469702
sI5946
F13.224884766553981
sI5947
F11.615446854119879
sI5948
F7.7547171430792847
sI5949
F8.184690670216181
sI5950
F6.8748720311255855
sI5952
F13.918031947113926
sI5953
F13.918031947113926
sI5954
F11.433125297325926
sI5955
F11.720807369777706
sI5956
F13.918031947113926
sI5957
F10.585827436938722
sI5958
F11.433125297325926
sI5959
F11.433125297325926
sI5960
F8.9007521102990008
sI5961
F10.873509509390503
sI5962
F10.699156122245725
sI5963
F10.699156122245725
sI5965
F10.922299673559936
sI5966
F10.922299673559936
sI5967
F11.145443224874144
sI5968
F11.35308258965239
sI5969
F11.720807369777706
sI5970
F11.027660189217761
sI5971
F13.918031947113926
sI5972
F13.918031947113926
sI5973
F13.918031947113926
sI5974
F13.918031947113926
sI5975
F13.224884766553981
sI5976
F10.973592967947486
sI5977
F12.819419658445817
sI5979
F13.918031947113926
sI5981
F13.918031947113926
sI5984
F13.918031947113926
sI5985
F9.9667882285324989
sI5986
F11.720807369777706
sI5987
F11.720807369777706
sI5988
F10.739978116765981
sI5989
F11.209981746011715
sI5990
F11.83859040543409
sI5991
F13.918031947113926
sI5992
F12.308594034679825
sI5993
F12.819419658445817
sI5994
F10.51683456545177
sI5995
F13.224884766553981
sI5996
F11.615446854119879
sI5997
F11.720807369777706
sI5998
F10.307114034469702
sI5999
F10.550736117127451
sI6001
F11.720807369777706
sI6002
F11.433125297325926
sI6003
F13.224884766553981
sI6004
F12.126272477885871
sI6005
F13.918031947113926
sI6006
F10.739978116765981
sI6007
F10.254470300984279
sI6008
F10.550736117127451
sI6009
F13.918031947113926
sI6010
F10.585827436938722
sI6011
F10.585827436938722
sI6012
F11.209981746011715
sI6013
F12.308594034679825
sI6014
F12.819419658445817
sI6016
F11.520136674315555
sI6017
F11.433125297325926
sI6018
F11.278974617498667
sI6020
F11.35308258965239
sI6021
F11.83859040543409
sI6022
F13.918031947113926
sI6023
F13.918031947113926
sI6024
F12.819419658445817
sI6025
F11.83859040543409
sI6026
F11.83859040543409
sI6027
F9.8236873848918247
sI6028
F12.531737585994035
sI6029
F12.531737585994035
sI6030
F11.83859040543409
sI6031
F12.819419658445817
sI6032
F12.819419658445817
sI6034
F13.918031947113926
sI6035
F11.972121798058613
sI6036
F12.819419658445817
sI6037
F11.972121798058613
sI6038
F11.278974617498667
sI6039
F9.2359007199897061
sI6040
F13.224884766553981
sI6041
F13.918031947113926
sI6043
F10.362683885624511
sI6044
F11.615446854119879
sI6047
F11.084818603057709
sI6048
F12.531737585994035
sI6049
F9.8071580829406138
sI6050
F10.782537731184776
sI6051
F11.278974617498667
sI6052
F11.278974617498667
sI6053
F11.209981746011715
sI6054
F10.156831831420364
sI6055
F13.224884766553981
sI6056
F12.819419658445817
sI6059
F10.334513008657815
sI6067
F12.531737585994035
sI6068
F12.531737585994035
sI6070
F11.83859040543409
sI6071
F12.531737585994035
sI6084
F12.819419658445817
sI6086
F13.918031947113926
sI6087
F13.224884766553981
sI6088
F13.918031947113926
sI6090
F13.918031947113926
sI6091
F13.918031947113926
sI6092
F13.224884766553981
sI6093
F12.308594034679825
sI6094
F12.308594034679825
sI6095
F13.224884766553981
sI6096
F12.308594034679825
sI6098
F13.918031947113926
sI6099
F13.918031947113926
sI6101
F12.531737585994035
sI6102
F12.819419658445817
sI6103
F13.918031947113926
sI6104
F13.918031947113926
sI6105
F10.111369457343606
sI6106
F13.918031947113926
sI6107
F10.391671422497764
sI6108
F8.5244044007615649
sI6109
F11.520136674315555
sI6110
F12.819419658445817
sI6112
F13.918031947113926
sI6113
F11.720807369777706
sI6114
F11.720807369777706
sI6118
F11.720807369777706
sI6124
F9.2175515813215103
sI6127
F10.973592967947486
sI6130
F13.918031947113926
sI6132
F13.918031947113926
sI6133
F11.972121798058613
sI6134
F13.224884766553981
sI6135
F13.224884766553981
sI6136
F13.918031947113926
sI6137
F11.972121798058613
sI6138
F8.106890954137226
sI6139
F13.918031947113926
sI6140
F13.918031947113926
sI6141
F13.918031947113926
sI6150
F13.918031947113926
sI6157
F12.126272477885871
sI6160
F9.8071580829406138
sI6161
F13.918031947113926
sI6162
F12.531737585994035
sI6163
F11.972121798058613
sI6166
F11.972121798058613
sI6168
F11.83859040543409
sI6169
F11.83859040543409
sI6170
F12.531737585994035
sI6171
F11.520136674315555
sI6172
F13.918031947113926
sI6173
F12.531737585994035
sI6174
F7.9240705198073567
sI6175
F12.531737585994035
sI6176
F10.82698949375561
sI6177
F10.421524385647446
sI6178
F10.973592967947486
sI6179
F9.8926802563787763
sI6180
F10.873509509390503
sI6181
F10.550736117127451
sI6183
F10.585827436938722
sI6184
F11.433125297325926
sI6188
F12.531737585994035
sI6190
F11.027660189217761
sI6191
F10.659935409092444
sI6192
F13.918031947113926
sI6196
F13.918031947113926
sI6203
F13.918031947113926
sI6204
F13.918031947113926
sI6208
F10.699156122245725
sI6209
F11.35308258965239
sI6212
F12.126272477885871
sI6213
F12.819419658445817
sI6214
F12.819419658445817
sI6216
F13.918031947113926
sI6217
F13.918031947113926
sI6220
F11.83859040543409
sI6223
F10.026211649003299
sI6224
F11.084818603057709
sI6225
F13.918031947113926
sI6226
F11.83859040543409
sI6227
F11.433125297325926
sI6228
F13.918031947113926
sI6229
F13.918031947113926
sI6240
F11.720807369777706
sI6241
F12.819419658445817
sI6242
F12.531737585994035
sI6249
F10.699156122245725
sI6251
F12.126272477885871
sI6252
F10.922299673559936
sI6253
F11.83859040543409
sI6254
F11.83859040543409
sI6256
F10.156831831420364
sI6257
F8.7306461412731711
sI6258
F13.224884766553981
sI6259
F10.550736117127451
sI6260
F10.782537731184776
sI6261
F10.659935409092444
sI6262
F10.334513008657815
sI6263
F9.1730998187506749
sI6264
F11.615446854119879
sI6265
F11.972121798058613
sI6266
F9.9862063143895998
sI6267
F8.7940679677106672
sI6268
F9.4753806906236093
sI6269
F13.918031947113926
sI6270
F13.918031947113926
sI6271
F12.308594034679825
sI6272
F9.3330644684433537
sI6273
F9.8236873848918247
sI6274
F12.531737585994035
sI6275
F11.615446854119879
sI6276
F11.720807369777706
sI6277
F11.027660189217761
sI6278
F10.046830936206035
sI6281
F11.209981746011715
sI6282
F11.972121798058613
sI6283
F11.972121798058613
sI6284
F10.067884345403867
sI6285
F12.531737585994035
sI6286
F11.720807369777706
sI6287
F13.224884766553981
sI6288
F13.224884766553981
sI6289
F12.308594034679825
sI6290
F11.720807369777706
sI6291
F12.819419658445817
sI6292
F13.918031947113926
sI6293
F13.224884766553981
sI6294
F12.126272477885871
sI6295
F9.3229120969793353
sI6296
F11.83859040543409
sI6297
F10.782537731184776
sI6298
F13.918031947113926
sI6299
F13.918031947113926
sI6300
F13.918031947113926
sI6301
F10.922299673559936
sI6302
F9.9667882285324989
sI6303
F11.35308258965239
sI6304
F7.4996670111777144
sI6305
F9.0897182098116254
sI6306
F10.254470300984279
sI6307
F12.126272477885871
sI6309
F13.918031947113926
sI6310
F12.819419658445817
sI6311
F12.531737585994035
sI6312
F12.126272477885871
sI6314
F12.531737585994035
sI6315
F11.145443224874144
sI6316
F12.126272477885871
sI6317
F13.918031947113926
sI6318
F13.918031947113926
sI6319
F9.1389084540023973
sI6320
F11.084818603057709
sI6321
F8.8617861417656183
sI6322
F13.224884766553981
sI6323
F4.837117122578201
sI6324
F5.3829988375693576
sI6325
F4.8984889504127418
sI6326
F8.1403796238912687
sI6327
F10.452296044314199
sI6328
F10.28044578738754
sI6329
F7.7175227730712352
sI6330
F7.6338977860431241
sI6331
F9.5360053124400448
sI6332
F12.531737585994035
sI6341
F13.918031947113926
sI6343
F11.209981746011715
sI6344
F12.308594034679825
sI6346
F12.819419658445817
sI6348
F13.918031947113926
sI6349
F7.9290705302240623
sI6350
F12.819419658445817
sI6351
F13.224884766553981
sI6353
F13.224884766553981
sI6354
F13.224884766553981
sI6356
F10.391671422497764
sI6358
F10.204459880409619
sI6359
F13.918031947113926
sI6360
F10.585827436938722
sI6361
F12.819419658445817
sI6362
F13.224884766553981
sI6363
F11.615446854119879
sI6365
F13.918031947113926
sI6366
F12.819419658445817
sI6367
F13.918031947113926
sI6370
F13.918031947113926
sI6372
F12.819419658445817
sI6373
F11.520136674315555
sI6374
F8.6815899842839759
sI6375
F10.133842313195665
sI6376
F9.8071580829406138
sI6377
F13.224884766553981
sI6378
F11.209981746011715
sI6379
F9.3029114302726654
sI6380
F8.9412982046933518
sI6381
F8.1009207871507218
sI6382
F9.5742265252602419
sI6383
F9.5235827924414878
sI6384
F8.1654593082882929
sI6385
F10.180362328830558
sI6386
F9.9477400335618036
sI6387
F12.531737585994035
sI6388
F11.615446854119879
sI6389
F10.00600894168578
sI6390
F10.659935409092444
sI6391
F13.918031947113926
sI6392
F12.308594034679825
sI6393
F8.5244044007615649
sI6394
F9.3229120969793353
sI6395
F10.089390550624831
sI6396
F10.00600894168578
sI6397
F3.8666848913389451
sI6398
F10.659935409092444
sI6399
F10.00600894168578
sI6400
F12.531737585994035
sI6401
F11.433125297325926
sI6402
F9.5485840946469036
sI6407
F13.918031947113926
sI6408
F9.0352300245275554
sI6409
F8.4290942209572393
sI6410
F10.622195081109597
sI6411
F13.918031947113926
sI6412
F11.084818603057709
sI6413
F11.615446854119879
sI6414
F9.5113126998496735
sI6416
F9.2833029588842901
sI6417
F9.2545928530018582
sI6418
F9.3229120969793353
sI6419
F13.918031947113926
sI6420
F12.531737585994035
sI6424
F13.224884766553981
sI6425
F13.224884766553981
sI6426
F9.3854324539606697
sI6427
F11.520136674315555
sI6428
F13.918031947113926
sI6429
F12.531737585994035
sI6430
F10.204459880409619
sI6431
F11.972121798058613
sI6432
F10.739978116765981
sI6433
F8.1911841995267292
sI6434
F10.922299673559936
sI6438
F13.224884766553981
sI6440
F9.5113126998496735
sI6441
F10.28044578738754
sI6442
F10.133842313195665
sI6443
F12.819419658445817
sI6444
F8.7085457942725046
sI6445
F11.278974617498667
sI6446
F11.615446854119879
sI6447
F13.918031947113926
sI6448
F9.0352300245275554
sI6449
F10.156831831420364
sI6450
F9.9290479005496515
sI6458
F13.918031947113926
sI6463
F13.918031947113926
sI6466
F12.819419658445817
sI6473
F11.027660189217761
sI6474
F13.918031947113926
sI6476
F13.918031947113926
sI6479
F13.918031947113926
sI6486
F11.720807369777706
sI6487
F13.918031947113926
sI6489
F13.918031947113926
sI6495
F13.918031947113926
sI6497
F13.918031947113926
sI6498
F13.224884766553981
sI6499
F11.972121798058613
sI6502
F13.918031947113926
sI6504
F13.918031947113926
sI6505
F13.918031947113926
sI6507
F13.918031947113926
sI6516
F12.531737585994035
sI6517
F13.918031947113926
sI6518
F13.918031947113926
sI6520
F13.224884766553981
sI6521
F13.918031947113926
sI6523
F13.224884766553981
sI6524
F11.83859040543409
sI6525
F13.224884766553981
sI6526
F13.918031947113926
sI6527
F12.819419658445817
sI6528
F13.918031947113926
sI6540
F11.972121798058613
sI6541
F11.209981746011715
sI6542
F13.918031947113926
sI6547
F13.918031947113926
sI6549
F13.918031947113926
sI6550
F13.918031947113926
sI6553
F13.918031947113926
sI6556
F12.819419658445817
sI6557
F13.224884766553981
sI6559
F13.224884766553981
sI6561
F13.224884766553981
sI6564
F13.918031947113926
sI6567
F13.918031947113926
sI6572
F12.531737585994035
sI6574
F12.531737585994035
sI6576
F11.972121798058613
sI6577
F13.918031947113926
sI6578
F13.918031947113926
sI6583
F13.918031947113926
sI6584
F13.918031947113926
sI6585
F13.918031947113926
sI6588
F13.918031947113926
sI6589
F13.918031947113926
sI6590
F12.819419658445817
sI6591
F11.83859040543409
sI6592
F13.918031947113926
sI6594
F13.918031947113926
sI6596
F13.918031947113926
sI6597
F13.224884766553981
sI6604
F13.918031947113926
sI6609
F13.224884766553981
sI6610
F13.224884766553981
sI6615
F13.918031947113926
sI6616
F12.531737585994035
sI6618
F12.308594034679825
sI6619
F13.224884766553981
sI6625
F11.720807369777706
sI6627
F13.918031947113926
sI6629
F12.531737585994035
sI6630
F12.531737585994035
sI6632
F12.126272477885871
sI6633
F13.224884766553981
sI6634
F13.918031947113926
sI6635
F13.918031947113926
sI6636
F13.224884766553981
sI6640
F13.918031947113926
sI6641
F12.308594034679825
sI6643
F9.9290479005496515
sI6644
F9.9477400335618036
sI6645
F11.972121798058613
sI6646
F13.918031947113926
sI6652
F13.918031947113926
sI6653
F12.308594034679825
sI6656
F9.2930591338296544
sI6657
F13.918031947113926
sI6660
F13.918031947113926
sI6666
F9.8749806792793748
sI6668
F13.918031947113926
sI6669
F13.918031947113926
sI6670
F10.922299673559936
sI6671
F7.8358130367374796
sI6672
F13.918031947113926
sI6673
F12.531737585994035
sI6674
F13.224884766553981
sI6675
F9.4872151482706126
sI6679
F12.126272477885871
sI6680
F11.972121798058613
sI6681
F9.3962433700648855
sI6682
F13.918031947113926
sI6684
F13.918031947113926
sI6686
F8.8554369140869582
sI6694
F12.308594034679825
sI6697
F13.224884766553981
sI6698
F13.918031947113926
sI6699
F13.918031947113926
sI6700
F12.531737585994035
sI6701
F13.918031947113926
sI6702
F13.918031947113926
sI6703
F13.224884766553981
sI6704
F10.334513008657815
sI6705
F13.918031947113926
sI6706
F13.224884766553981
sI6708
F13.918031947113926
sI6713
F13.224884766553981
sI6714
F13.224884766553981
sI6720
F13.224884766553981
sI6721
F13.918031947113926
sI6725
F10.484044742628779
sI6726
F12.308594034679825
sI6727
F12.531737585994035
sI6728
F11.83859040543409
sI6730
F11.278974617498667
sI6731
F13.224884766553981
sI6732
F13.918031947113926
sI6733
F7.5671462303991861
sI6738
F13.918031947113926
sI6739
F13.224884766553981
sI6740
F12.531737585994035
sI6741
F12.819419658445817
sI6742
F12.531737585994035
sI6743
F12.308594034679825
sI6744
F13.918031947113926
sI6747
F11.520136674315555
sI6748
F13.224884766553981
sI6749
F12.819419658445817
sI6750
F13.224884766553981
sI6752
F10.873509509390503
sI6753
F12.531737585994035
sI6754
F11.720807369777706
sI6755
F13.224884766553981
sI6756
F10.550736117127451
sI6757
F11.972121798058613
sI6758
F11.972121798058613
sI6759
F12.531737585994035
sI6760
F13.918031947113926
sI6761
F10.873509509390503
sI6762
F12.531737585994035
sI6763
F13.918031947113926
sI6764
F13.918031947113926
sI6765
F10.782537731184776
sI6768
F12.126272477885871
sI6769
F9.3128617611258342
sI6770
F9.3536837556460899
sI6771
F8.3535115397912332
sI6772
F13.224884766553981
sI6773
F13.918031947113926
sI6774
F13.918031947113926
sI6775
F11.972121798058613
sI6776
F8.1750287593044426
sI6777
F10.699156122245725
sI6779
F11.209981746011715
sI6780
F11.972121798058613
sI6781
F11.972121798058613
sI6783
F12.531737585994035
sI6784
F13.918031947113926
sI6785
F11.972121798058613
sI6786
F11.720807369777706
sI6787
F11.084818603057709
sI6789
F13.224884766553981
sI6791
F13.918031947113926
sI6797
F13.918031947113926
sI6799
F10.026211649003299
sI6800
F8.9907782619567218
sI6801
F11.520136674315555
sI6802
F11.83859040543409
sI6803
F10.873509509390503
sI6807
F12.819419658445817
sI6811
F12.308594034679825
sI6815
F11.145443224874144
sI6816
F11.084818603057709
sI6817
F11.433125297325926
sI6821
F12.531737585994035
sI6822
F11.972121798058613
sI6823
F12.531737585994035
sI6824
F9.9862063143895998
sI6825
F12.126272477885871
sI6826
F12.308594034679825
sI6827
F11.972121798058613
sI6828
F11.520136674315555
sI6829
F11.433125297325926
sI6830
F13.224884766553981
sI6831
F12.531737585994035
sI6832
F11.433125297325926
sI6833
F11.209981746011715
sI6834
F12.819419658445817
sI6835
F13.224884766553981
sI6836
F12.819419658445817
sI6837
F13.224884766553981
sI6838
F13.224884766553981
sI6839
F12.308594034679825
sI6840
F7.3988846591735298
sI6842
F9.7908975620688334
sI6843
F9.7908975620688334
sI6844
F9.6695367050645675
sI6845
F9.6413658280978698
sI6847
F13.918031947113926
sI6849
F13.918031947113926
sI6850
F11.520136674315555
sI6851
F13.918031947113926
sI6852
F12.531737585994035
sI6854
F13.224884766553981
sI6855
F11.83859040543409
sI6856
F11.720807369777706
sI6859
F13.918031947113926
sI6860
F13.224884766553981
sI6862
F13.224884766553981
sI6863
F8.6147270390548503
sI6864
F12.531737585994035
sI6865
F11.35308258965239
sI6866
F12.126272477885871
sI6867
F11.720807369777706
sI6868
F12.819419658445817
sI6869
F9.9477400335618036
sI6870
F12.819419658445817
sI6871
F13.918031947113926
sI6872
F13.918031947113926
sI6873
F12.126272477885871
sI6874
F10.659935409092444
sI6875
F12.126272477885871
sI6876
F12.531737585994035
sI6877
F13.224884766553981
sI6878
F13.918031947113926
sI6879
F13.224884766553981
sI6881
F13.918031947113926
sI6883
F13.224884766553981
sI6884
F13.918031947113926
sI6885
F13.918031947113926
sI6887
F12.531737585994035
sI6889
F13.918031947113926
sI6890
F12.531737585994035
sI6892
F12.819419658445817
sI6893
F11.433125297325926
sI6894
F11.209981746011715
sI6896
F10.922299673559936
sI6897
F12.819419658445817
sI6898
F13.918031947113926
sI6903
F9.1473473226482618
sI6905
F10.739978116765981
sI6906
F10.362683885624511
sI6907
F9.9862063143895998
sI6908
F10.046830936206035
sI6910
F11.720807369777706
sI6911
F12.819419658445817
sI6912
F10.782537731184776
sI6913
F11.35308258965239
sI6914
F13.918031947113926
sI6915
F10.22915249299999
sI6916
F10.873509509390503
sI6917
F8.2904108334232891
sI6919
F11.972121798058613
sI6920
F13.918031947113926
sI6921
F11.972121798058613
sI6922
F12.819419658445817
sI6923
F10.973592967947486
sI6924
F12.531737585994035
sI6925
F12.819419658445817
sI6926
F10.046830936206035
sI6928
F8.5198692455961726
sI6929
F9.4406951326357191
sI6930
F9.4406951326357191
sI6931
F9.1473473226482618
sI6933
F13.918031947113926
sI6934
F8.0544007715158283
sI6936
F11.209981746011715
sI6937
F9.4406951326357191
sI6938
F8.8120864732133448
sI6939
F11.83859040543409
sI6940
F11.520136674315555
sI6941
F9.9290479005496515
sI6942
F10.111369457343606
sI6943
F10.254470300984279
sI6944
F11.209981746011715
sI6945
F8.6762849320542834
sI6946
F10.307114034469702
sI6947
F10.362683885624511
sI6948
F11.145443224874144
sI6949
F13.918031947113926
sI6950
F6.0648155589578536
sI6951
F13.224884766553981
sI6952
F13.224884766553981
sI6953
F13.224884766553981
sI6954
F13.224884766553981
sI6955
F11.83859040543409
sI6957
F12.819419658445817
sI6958
F11.615446854119879
sI6962
F13.918031947113926
sI6966
F12.126272477885871
sI6971
F13.224884766553981
sI6972
F13.224884766553981
sI6976
F13.918031947113926
sI6977
F11.615446854119879
sI6978
F13.918031947113926
sI6979
F13.918031947113926
sI6980
F11.83859040543409
sI6982
F13.918031947113926
sI6983
F10.973592967947486
sI6995
F10.82698949375561
sI6996
F12.308594034679825
sI6998
F12.819419658445817
sI6999
F13.918031947113926
sI7000
F12.819419658445817
sI7002
F12.308594034679825
sI7004
F12.126272477885871
sI7005
F11.83859040543409
sI7006
F12.308594034679825
sI7012
F12.819419658445817
sI7013
F13.224884766553981
sI7015
F13.918031947113926
sI7016
F13.918031947113926
sI7017
F11.433125297325926
sI7018
F13.224884766553981
sI7026
F11.720807369777706
sI7028
F13.224884766553981
sI7030
F13.918031947113926
sI7031
F13.918031947113926
sI7033
F13.918031947113926
sI7035
F13.918031947113926
sI7036
F13.918031947113926
sI7037
F13.918031947113926
sI7043
F13.918031947113926
sI7045
F11.35308258965239
sI7046
F13.918031947113926
sI7050
F13.224884766553981
sI7053
F13.918031947113926
sI7059
F13.224884766553981
sI7060
F12.819419658445817
sI7061
F13.918031947113926
sI7064
F10.28044578738754
sI7065
F13.918031947113926
sI7069
F12.308594034679825
sI7070
F13.918031947113926
sI7071
F13.918031947113926
sI7072
F13.918031947113926
sI7074
F12.126272477885871
sI7075
F13.918031947113926
sI7079
F13.224884766553981
sI7080
F12.126272477885871
sI7085
F11.615446854119879
sI7089
F12.126272477885871
sI7090
F11.83859040543409
sI7093
F11.615446854119879
sI7097
F13.918031947113926
sI7104
F13.918031947113926
sI7105
F13.918031947113926
sI7109
F10.133842313195665
sI7118
F13.918031947113926
sI7121
F13.224884766553981
sI7126
F12.819419658445817
sI7134
F13.918031947113926
sI7135
F13.224884766553981
sI7137
F12.126272477885871
sI7141
F13.918031947113926
sI7142
F10.111369457343606
sI7144
F13.224884766553981
sI7147
F10.391671422497764
sI7154
F13.918031947113926
sI7155
F12.819419658445817
sI7158
F12.531737585994035
sI7160
F12.819419658445817
sI7165
F13.918031947113926
sI7167
F13.918031947113926
sI7168
F13.918031947113926
sI7171
F12.819419658445817
sI7174
F13.224884766553981
sI7176
F13.918031947113926
sI7177
F11.615446854119879
sI7181
F13.918031947113926
sI7184
F12.819419658445817
sI7186
F13.918031947113926
sI7188
F12.819419658445817
sI7197
F12.819419658445817
sI7198
F11.83859040543409
sI7211
F13.918031947113926
sI7217
F13.918031947113926
sI7219
F13.918031947113926
sI7220
F13.918031947113926
sI7222
F10.739978116765981
sI7224
F13.918031947113926
sI7227
F13.224884766553981
sI7229
F13.918031947113926
sI7233
F13.224884766553981
sI7236
F13.918031947113926
sI7239
F12.531737585994035
sI7245
F13.918031947113926
sI7247
F13.918031947113926
sI7250
F11.972121798058613
sI7263
F13.918031947113926
sI7264
F13.918031947113926
sI7271
F11.972121798058613
sI7273
F12.308594034679825
sI7274
F13.224884766553981
sI7280
F13.918031947113926
sI7281
F13.918031947113926
sI7282
F12.308594034679825
sI7283
F13.224884766553981
sI7287
F13.918031947113926
sI7291
F12.308594034679825
sI7295
F13.918031947113926
sI7297
F13.918031947113926
sI7299
F13.918031947113926
sI7301
F13.918031947113926
sI7304
F13.918031947113926
sI7306
F13.918031947113926
sI7311
F13.224884766553981
sI7320
F11.720807369777706
sI7325
F12.308594034679825
sI7328
F9.9667882285324989
sI7337
F11.972121798058613
sI7343
F13.918031947113926
sI7346
F11.35308258965239
sI7347
F11.615446854119879
sI7348
F13.918031947113926
sI7352
F13.918031947113926
sI7357
F12.819419658445817
sI7362
F13.224884766553981
sI7364
F13.918031947113926
sI7365
F12.126272477885871
sI7366
F12.126272477885871
sI7368
F13.918031947113926
sI7369
F13.918031947113926
sI7379
F13.918031947113926
sI7384
F12.819419658445817
sI7389
F12.819419658445817
sI7390
F13.918031947113926
sI7396
F13.918031947113926
sI7398
F10.82698949375561
sI7399
F13.224884766553981
sI7400
F12.531737585994035
sI7405
F13.918031947113926
sI7406
F13.918031947113926
sI7407
F13.224884766553981
sI7409
F13.224884766553981
sI7412
F10.307114034469702
sI7417
F13.918031947113926
sI7420
F12.126272477885871
sI7421
F13.918031947113926
sI7426
F12.819419658445817
sI7427
F12.531737585994035
sI7428
F13.918031947113926
sI7431
F11.615446854119879
sI7434
F13.918031947113926
sI7435
F12.126272477885871
sI7440
F12.819419658445817
sI7442
F10.421524385647446
sI7444
F13.918031947113926
sI7445
F11.145443224874144
sI7448
F10.452296044314199
sI7449
F10.452296044314199
sI7456
F13.918031947113926
sI7462
F13.918031947113926
sI7463
F13.918031947113926
sI7466
F13.918031947113926
sI7467
F13.918031947113926
sI7469
F13.224884766553981
sI7472
F11.972121798058613
sI7476
F11.83859040543409
sI7478
F13.918031947113926
sI7482
F13.918031947113926
sI7485
F11.83859040543409
sI7487
F13.918031947113926
sI7489
F13.918031947113926
sI7494
F12.531737585994035
sI7496
F10.973592967947486
sI7497
F13.918031947113926
sI7502
F13.918031947113926
sI7503
F13.224884766553981
sI7504
F9.3747371648439213
sI7507
F12.819419658445817
sI7509
F11.520136674315555
sI7514
F13.918031947113926
sI7517
F12.531737585994035
sI7518
F12.126272477885871
sI7519
F12.308594034679825
sI7520
F12.531737585994035
sI7524
F12.531737585994035
sI7526
F13.918031947113926
sI7529
F11.520136674315555
sI7533
F13.918031947113926
sI7534
F13.918031947113926
sI7538
F13.224884766553981
sI7544
F13.918031947113926
sI7547
F11.83859040543409
sI7549
F13.918031947113926
sI7554
F13.918031947113926
sI7561
F10.659935409092444
sI7566
F13.224884766553981
sI7569
F12.819419658445817
sI7573
F11.972121798058613
sI7577
F11.027660189217761
sI7578
F12.531737585994035
sI7580
F12.819419658445817
sI7584
F13.918031947113926
sI7596
F12.126272477885871
sI7597
F12.531737585994035
sI7601
F13.224884766553981
sI7602
F12.819419658445817
sI7607
F11.720807369777706
sI7612
F13.224884766553981
sI7619
F13.918031947113926
sI7620
F12.531737585994035
sI7624
F13.918031947113926
sI7625
F13.224884766553981
sI7631
F13.224884766553981
sI7632
F13.224884766553981
sI7636
F11.972121798058613
sI7639
F11.520136674315555
sI7644
F12.531737585994035
sI7651
F12.531737585994035
sI7653
F11.278974617498667
sI7657
F11.209981746011715
sI7661
F13.224884766553981
sI7667
F11.615446854119879
sI7669
F13.918031947113926
sI7671
F13.224884766553981
sI7673
F12.819419658445817
sI7676
F13.224884766553981
sI7677
F13.918031947113926
sI7678
F12.308594034679825
sI7681
F13.918031947113926
sI7688
F13.224884766553981
sI7689
F13.918031947113926
sI7694
F13.224884766553981
sI7697
F11.433125297325926
sI7698
F12.308594034679825
sI7701
F11.35308258965239
sI7702
F13.224884766553981
sI7704
F12.819419658445817
sI7709
F11.972121798058613
sI7710
F13.918031947113926
sI7716
F13.918031947113926
sI7717
F12.819419658445817
sI7722
F12.819419658445817
sI7723
F12.126272477885871
sI7727
F11.83859040543409
sI7729
F13.224884766553981
sI7741
F11.433125297325926
sI7744
F12.819419658445817
sI7747
F13.224884766553981
sI7748
F13.224884766553981
sI7749
F13.918031947113926
sI7750
F11.209981746011715
sI7752
F13.224884766553981
sI7758
F13.918031947113926
sI7761
F12.531737585994035
sI7768
F13.918031947113926
sI7773
F13.918031947113926
sI7777
F12.819419658445817
sI7780
F13.224884766553981
sI7784
F10.204459880409619
sI7789
F13.918031947113926
sI7796
F13.918031947113926
sI7801
F13.918031947113926
sI7804
F12.308594034679825
sI7807
F13.224884766553981
sI7812
F13.918031947113926
sI7813
F10.22915249299999
sI7814
F13.918031947113926
sI7815
F13.918031947113926
sI7817
F13.918031947113926
sI7823
F13.918031947113926
sI7825
F13.224884766553981
sI7827
F13.224884766553981
sI7832
F13.918031947113926
sI7833
F12.531737585994035
sI7835
F13.224884766553981
sI7839
F13.918031947113926
sI7843
F13.918031947113926
sI7849
F12.531737585994035
sI7850
F11.83859040543409
sI7851
F13.224884766553981
sI7856
F13.918031947113926
sI7857
F13.918031947113926
sI7858
F12.819419658445817
sI7860
F13.918031947113926
sI7861
F13.224884766553981
sI7864
F13.918031947113926
sI7868
F11.520136674315555
sI7870
F13.918031947113926
sI7872
F11.027660189217761
sI7874
F13.918031947113926
sI7875
F11.972121798058613
sI7877
F13.918031947113926
sI7878
F12.308594034679825
sI7879
F13.224884766553981
sI7884
F12.126272477885871
sI7888
F13.224884766553981
sI7890
F13.918031947113926
sI7891
F12.819419658445817
sI7893
F13.918031947113926
sI7895
F12.819419658445817
sI7897
F13.224884766553981
sI7901
F12.308594034679825
sI7902
F13.224884766553981
sI7903
F12.308594034679825
sI7908
F13.918031947113926
sI7910
F13.918031947113926
sI7913
F13.224884766553981
sI7914
F13.918031947113926
sI7916
F12.308594034679825
sI7918
F13.918031947113926
sI7919
F12.819419658445817
sI7920
F13.918031947113926
sI7925
F11.027660189217761
sI7928
F13.224884766553981
sI7931
F13.918031947113926
sI7932
F13.918031947113926
sI7938
F12.531737585994035
sI7939
F10.204459880409619
sI7940
F13.918031947113926
sI7941
F9.4293955773817864
sI7942
F10.046830936206035
sI7943
F11.433125297325926
sI7945
F10.51683456545177
sI7946
F10.111369457343606
sI7947
F9.8071580829406138
sI7948
F11.720807369777706
sI7949
F9.8749806792793748
sI7950
F13.918031947113926
sI7951
F11.145443224874144
sI7953
F12.531737585994035
sI7954
F11.084818603057709
sI7955
F8.5427535394297607
sI7956
F8.4005790506492186
sI7958
F7.4628333837738037
sI7959
F11.972121798058613
sI7960
F10.51683456545177
sI7961
F9.6839254425166672
sI7962
F12.126272477885871
sI7963
F12.819419658445817
sI7964
F8.3085601519289654
sI7965
F10.484044742628779
sI7967
F13.918031947113926
sI7968
F11.278974617498667
sI7969
F13.918031947113926
sI7970
F13.918031947113926
sI7972
F13.918031947113926
sI7983
F13.918031947113926
sI7985
F12.126272477885871
sI7987
F12.126272477885871
sI7988
F13.918031947113926
sI7989
F13.918031947113926
sI7990
F13.918031947113926
sI7991
F12.308594034679825
sI7992
F13.918031947113926
sI7998
F12.126272477885871
sI7999
F13.918031947113926
sI8005
F11.520136674315555
sI8013
F12.819419658445817
sI8015
F13.224884766553981
sI8016
F13.224884766553981
sI8018
F10.922299673559936
sI8021
F13.224884766553981
sI8028
F11.972121798058613
sI8029
F11.209981746011715
sI8033
F13.224884766553981
sI8039
F9.9862063143895998
sI8043
F12.819419658445817
sI8047
F11.972121798058613
sI8048
F13.224884766553981
sI8050
F11.520136674315555
sI8051
F13.918031947113926
sI8052
F12.531737585994035
sI8053
F12.819419658445817
sI8056
F13.918031947113926
sI8060
F13.918031947113926
sI8063
F13.224884766553981
sI8064
F13.224884766553981
sI8067
F13.918031947113926
sI8071
F11.972121798058613
sI8072
F11.83859040543409
sI8079
F13.918031947113926
sI8080
F11.520136674315555
sI8081
F13.918031947113926
sI8082
F11.520136674315555
sI8085
F13.224884766553981
sI8088
F10.180362328830558
sI8091
F12.819419658445817
sI8093
F12.819419658445817
sI8096
F11.433125297325926
sI8098
F13.918031947113926
sI8100
F13.918031947113926
sI8104
F12.531737585994035
sI8108
F13.918031947113926
sI8112
F11.972121798058613
sI8113
F13.918031947113926
sI8116
F13.918031947113926
sI8118
F12.819419658445817
sI8119
F12.819419658445817
sI8129
F12.819419658445817
sI8130
F13.918031947113926
sI8139
F13.224884766553981
sI8144
F13.224884766553981
sI8145
F13.224884766553981
sI8146
F13.918031947113926
sI8147
F13.918031947113926
sI8149
F13.918031947113926
sI8152
F12.819419658445817
sI8155
F13.918031947113926
sI8156
F13.918031947113926
sI8159
F13.224884766553981
sI8160
F13.918031947113926
sI8161
F13.918031947113926
sI8164
F12.308594034679825
sI8167
F13.224884766553981
sI8168
F13.224884766553981
sI8170
F13.224884766553981
sI8175
F13.224884766553981
sI8178
F13.918031947113926
sI8180
F12.819419658445817
sI8185
F13.224884766553981
sI8187
F11.027660189217761
sI8190
F13.918031947113926
sI8191
F13.224884766553981
sI8194
F13.918031947113926
sI8201
F13.224884766553981
sI8202
F12.819419658445817
sI8207
F13.918031947113926
sI8208
F12.531737585994035
sI8213
F13.918031947113926
sI8217
F13.918031947113926
sI8219
F12.819419658445817
sI8220
F10.973592967947486
sI8228
F13.224884766553981
sI8230
F10.585827436938722
sI8231
F13.224884766553981
sI8232
F13.918031947113926
sI8233
F13.918031947113926
sI8234
F11.972121798058613
sI8235
F12.531737585994035
sI8240
F13.918031947113926
sI8242
F10.739978116765981
sI8243
F11.027660189217761
sI8244
F13.918031947113926
sI8246
F13.918031947113926
sI8249
F12.531737585994035
sI8250
F13.918031947113926
sI8254
F13.918031947113926
sI8255
F11.027660189217761
sI8256
F8.5567397814045005
sI8257
F13.224884766553981
sI8259
F11.615446854119879
sI8260
F13.918031947113926
sI8267
F12.531737585994035
sI8268
F13.918031947113926
sI8271
F13.224884766553981
sI8274
F11.972121798058613
sI8276
F12.531737585994035
sI8277
F12.308594034679825
sI8284
F9.2545928530018582
sI8295
F11.83859040543409
sI8296
F13.918031947113926
sI8300
F12.531737585994035
sI8303
F12.531737585994035
sI8304
F13.918031947113926
sI8308
F11.972121798058613
sI8309
F11.35308258965239
sI8315
F12.819419658445817
sI8316
F12.819419658445817
sI8317
F11.35308258965239
sI8320
F13.918031947113926
sI8323
F13.918031947113926
sI8324
F12.531737585994035
sI8325
F11.972121798058613
sI8327
F12.819419658445817
sI8331
F12.308594034679825
sI8334
F13.918031947113926
sI8336
F12.531737585994035
sI8339
F13.224884766553981
sI8340
F13.918031947113926
sI8341
F12.126272477885871
sI8342
F12.531737585994035
sI8346
F12.819419658445817
sI8349
F13.918031947113926
sI8354
F13.918031947113926
sI8362
F13.224884766553981
sI8364
F12.819419658445817
sI8371
F11.972121798058613
sI8377
F13.918031947113926
sI8378
F12.819419658445817
sI8379
F13.918031947113926
sI8380
F13.918031947113926
sI8383
F11.35308258965239
sI8384
F13.918031947113926
sI8386
F11.520136674315555
sI8387
F8.5289602172974242
sI8388
F11.720807369777706
sI8391
F13.918031947113926
sI8392
F11.145443224874144
sI8395
F13.224884766553981
sI8397
F13.224884766553981
sI8415
F12.308594034679825
sI8417
F13.224884766553981
sI8423
F11.278974617498667
sI8428
F12.126272477885871
sI8429
F12.819419658445817
sI8431
F12.819419658445817
sI8432
F13.918031947113926
sI8435
F13.224884766553981
sI8440
F13.224884766553981
sI8441
F9.1730998187506749
sI8442
F12.819419658445817
sI8444
F13.918031947113926
sI8446
F13.918031947113926
sI8448
F11.615446854119879
sI8449
F11.433125297325926
sI8451
F12.308594034679825
sI8452
F12.531737585994035
sI8453
F13.918031947113926
sI8455
F11.83859040543409
sI8456
F10.782537731184776
sI8457
F13.224884766553981
sI8458
F11.83859040543409
sI8459
F13.918031947113926
sI8461
F12.819419658445817
sI8462
F11.209981746011715
sI8463
F12.819419658445817
sI8465
F11.720807369777706
sI8468
F13.918031947113926
sI8469
F13.918031947113926
sI8474
F13.918031947113926
sI8475
F12.819419658445817
sI8479
F10.699156122245725
sI8480
F10.699156122245725
sI8481
F10.739978116765981
sI8482
F10.782537731184776
sI8483
F11.720807369777706
sI8487
F13.224884766553981
sI8488
F12.819419658445817
sI8489
F12.531737585994035
sI8490
F13.918031947113926
sI8497
F13.918031947113926
sI8498
F12.126272477885871
sI8499
F12.308594034679825
sI8501
F13.224884766553981
sI8502
F13.918031947113926
sI8503
F13.224884766553981
sI8505
F9.7748972207223925
sI8507
F13.918031947113926
sI8508
F12.531737585994035
sI8510
F13.918031947113926
sI8511
F13.918031947113926
sI8514
F11.83859040543409
sI8517
F13.918031947113926
sI8520
F12.531737585994035
sI8522
F13.918031947113926
sI8524
F12.819419658445817
sI8526
F13.918031947113926
sI8543
F13.918031947113926
sI8544
F13.918031947113926
sI8545
F12.819419658445817
sI8551
F11.972121798058613
sI8552
F13.224884766553981
sI8557
F13.918031947113926
sI8560
F12.819419658445817
sI8563
F13.918031947113926
sI8564
F13.918031947113926
sI8565
F13.918031947113926
sI8567
F13.224884766553981
sI8570
F12.819419658445817
sI8575
F13.918031947113926
sI8578
F13.224884766553981
sI8584
F13.918031947113926
sI8585
F13.918031947113926
sI8586
F13.918031947113926
sI8587
F11.615446854119879
sI8588
F11.520136674315555
sI8589
F12.126272477885871
sI8590
F7.5345253122299205
sI8591
F8.3196099881155519
sI8592
F8.8181655192897281
sI8593
F11.615446854119879
sI8594
F13.224884766553981
sI8595
F11.278974617498667
sI8596
F11.278974617498667
sI8597
F13.918031947113926
sI8598
F11.209981746011715
sI8599
F12.308594034679825
sI8600
F8.9835580139832345
sI8601
F10.391671422497764
sI8602
F10.484044742628779
sI8603
F8.8746068301946792
sI8604
F8.4974969478416398
sI8605
F13.918031947113926
sI8606
F13.224884766553981
sI8607
F12.819419658445817
sI8608
F10.782537731184776
sI8609
F12.531737585994035
sI8610
F13.224884766553981
sI8611
F10.782537731184776
sI8612
F12.531737585994035
sI8613
F13.224884766553981
sI8614
F13.224884766553981
sI8615
F12.126272477885871
sI8616
F9.4521238284593423
sI8617
F9.5235827924414878
sI8618
F11.83859040543409
sI8622
F9.0817500401624471
sI8623
F10.22915249299999
sI8624
F11.720807369777706
sI8625
F11.83859040543409
sI8626
F13.224884766553981
sI8627
F13.224884766553981
sI8629
F8.736248396821841
sI8630
F12.819419658445817
sI8633
F12.819419658445817
sI8635
F13.918031947113926
sI8637
F11.83859040543409
sI8638
F7.1751513113220229
sI8639
F7.1894033340292243
sI8640
F13.918031947113926
sI8641
F13.918031947113926
sI8642
F12.531737585994035
sI8643
F7.7933485562197209
sI8644
F12.819419658445817
sI8645
F11.972121798058613
sI8647
F12.819419658445817
sI8648
F12.819419658445817
sI8649
F11.972121798058613
sI8650
F9.9667882285324989
sI8651
F9.1389084540023973
sI8652
F13.224884766553981
sI8653
F13.224884766553981
sI8654
F8.5153545652416458
sI8655
F9.627572505965535
sI8656
F8.323320567512086
sI8657
F11.520136674315555
sI8658
F10.22915249299999
sI8659
F9.7436446772182883
sI8660
F9.7436446772182883
sI8661
F9.3029114302726654
sI8662
F13.224884766553981
sI8663
F9.9477400335618036
sI8667
F11.972121798058613
sI8668
F10.550736117127451
sI8669
F9.2266840648847825
sI8670
F9.264071596956402
sI8671
F12.531737585994035
sI8672
F13.918031947113926
sI8674
F10.421524385647446
sI8675
F9.8926802563787763
sI8676
F12.531737585994035
sI8681
F13.918031947113926
sI8682
F9.6985242419378181
sI8683
F9.7436446772182883
sI8684
F13.918031947113926
sI8685
F13.918031947113926
sI8686
F13.224884766553981
sI8687
F13.918031947113926
sI8688
F13.918031947113926
sI8689
F11.209981746011715
sI8690
F7.2703435735505959
sI8691
F7.2703435735505959
sI8692
F8.7705374703004733
sI8693
F11.084818603057709
sI8694
F8.3650723621923078
sI8696
F10.585827436938722
sI8698
F12.531737585994035
sI8700
F13.918031947113926
sI8701
F13.918031947113926
sI8702
F12.126272477885871
sI8703
F11.615446854119879
sI8704
F12.531737585994035
sI8705
F13.224884766553981
sI8707
F8.501931544909505
sI8708
F11.83859040543409
sI8709
F11.972121798058613
sI8710
F13.224884766553981
sI8711
F11.433125297325926
sI8712
F13.224884766553981
sI8713
F8.323320567512086
sI8714
F11.615446854119879
sI8716
F13.918031947113926
sI8717
F12.308594034679825
sI8718
F12.308594034679825
sI8719
F12.531737585994035
sI8721
F13.918031947113926
sI8722
F13.918031947113926
sI8723
F13.918031947113926
sI8724
F13.918031947113926
sI8725
F11.278974617498667
sI8726
F13.224884766553981
sI8727
F13.224884766553981
sI8729
F13.918031947113926
sI8730
F12.126272477885871
sI8731
F13.224884766553981
sI8734
F12.308594034679825
sI8735
F9.7436446772182883
sI8736
F11.615446854119879
sI8737
F9.7133393277229594
sI8739
F13.224884766553981
sI8740
F9.2085017458015912
sI8741
F10.782537731184776
sI8742
F11.209981746011715
sI8743
F13.918031947113926
sI8744
F11.35308258965239
sI8746
F13.918031947113926
sI8747
F12.126272477885871
sI8748
F12.531737585994035
sI8749
F13.918031947113926
sI8751
F11.35308258965239
sI8752
F13.224884766553981
sI8756
F11.084818603057709
sI8757
F12.531737585994035
sI8760
F13.918031947113926
sI8762
F12.819419658445817
sI8763
F13.918031947113926
sI8764
F9.5872986068275949
sI8766
F13.918031947113926
sI8767
F13.918031947113926
sI8768
F13.918031947113926
sI8769
F13.918031947113926
sI8770
F13.918031947113926
sI8778
F13.918031947113926
sI8784
F10.922299673559936
sI8801
F13.918031947113926
sI8802
F13.918031947113926
sI8805
F13.918031947113926
sI8808
F11.615446854119879
sI8809
F11.83859040543409
sI8810
F11.83859040543409
sI8811
F13.224884766553981
sI8816
F10.307114034469702
sI8817
F13.224884766553981
sI8818
F13.224884766553981
sI8820
F12.531737585994035
sI8821
F12.819419658445817
sI8822
F13.918031947113926
sI8823
F13.224884766553981
sI8824
F13.918031947113926
sI8825
F13.224884766553981
sI8826
F13.224884766553981
sI8827
F10.452296044314199
sI8828
F11.972121798058613
sI8829
F13.224884766553981
sI8830
F13.918031947113926
sI8831
F13.918031947113926
sI8832
F11.145443224874144
sI8833
F11.83859040543409
sI8834
F13.918031947113926
sI8837
F13.918031947113926
sI8839
F13.224884766553981
sI8840
F13.224884766553981
sI8842
F13.224884766553981
sI8843
F12.531737585994035
sI8844
F13.918031947113926
sI8845
F13.918031947113926
sI8846
F13.918031947113926
sI8848
F13.918031947113926
sI8851
F13.918031947113926
sI8853
F13.918031947113926
sI8858
F13.224884766553981
sI8864
F12.308594034679825
sI8865
F13.918031947113926
sI8866
F13.918031947113926
sI8867
F13.918031947113926
sI8869
F13.918031947113926
sI8870
F13.224884766553981
sI8874
F10.922299673559936
sI8875
F13.224884766553981
sI8878
F12.126272477885871
sI8879
F13.918031947113926
sI8880
F13.918031947113926
sI8881
F11.972121798058613
sI8882
F12.126272477885871
sI8885
F12.531737585994035
sI8886
F12.531737585994035
sI8887
F12.308594034679825
sI8888
F12.308594034679825
sI8890
F13.918031947113926
sI8891
F13.918031947113926
sI8897
F13.918031947113926
sI8900
F13.918031947113926
sI8906
F12.819419658445817
sI8916
F12.531737585994035
sI8930
F13.224884766553981
sI8931
F11.209981746011715
sI8933
F12.531737585994035
sI8935
F10.922299673559936
sI8939
F13.918031947113926
sI8940
F13.918031947113926
sI8943
F12.126272477885871
sI8944
F12.531737585994035
sI8945
F13.224884766553981
sI8948
F13.918031947113926
sI8951
F13.918031947113926
sI8952
F13.918031947113926
sI8953
F13.918031947113926
sI8956
F13.224884766553981
sI8957
F13.918031947113926
sI8958
F13.918031947113926
sI8961
F13.918031947113926
sI8964
F13.918031947113926
sI8975
F9.2175515813215103
sI8977
F12.308594034679825
sI8979
F13.918031947113926
sI8980
F9.4991913393173277
sI8981
F9.5113126998496735
sI8982
F11.720807369777706
sI8985
F13.918031947113926
sI8988
F13.918031947113926
sI8989
F13.224884766553981
sI8990
F13.224884766553981
sI8991
F13.224884766553981
sI8992
F13.224884766553981
sI8993
F12.531737585994035
sI8995
F13.224884766553981
sI8997
F13.918031947113926
sI9000
F13.224884766553981
sI9002
F13.918031947113926
sI9018
F13.918031947113926
sI9019
F13.918031947113926
sI9020
F13.918031947113926
sI9021
F9.9477400335618036
sI9026
F13.918031947113926
sI9027
F13.918031947113926
sI9028
F13.918031947113926
sI9030
F13.918031947113926
sI9036
F13.918031947113926
sI9039
F13.918031947113926
sI9042
F13.918031947113926
sI9043
F13.918031947113926
sI9055
F12.531737585994035
sI9057
F11.145443224874144
sI9058
F10.156831831420364
sI9059
F11.433125297325926
sI9060
F9.6553520700726096
sI9062
F11.615446854119879
sI9063
F10.28044578738754
sI9064
F10.22915249299999
sI9065
F12.819419658445817
sI9066
F11.209981746011715
sI9067
F9.0660016831943082
sI9068
F11.720807369777706
sI9069
F12.819419658445817
sI9070
F9.3536837556460899
sI9071
F11.35308258965239
sI9072
F12.819419658445817
sI9073
F13.918031947113926
sI9074
F11.615446854119879
sI9075
F11.972121798058613
sI9076
F13.918031947113926
sI9078
F13.918031947113926
sI9079
F10.180362328830558
sI9080
F11.209981746011715
sI9081
F13.918031947113926
sI9082
F13.918031947113926
sI9083
F13.918031947113926
sI9085
F11.720807369777706
sI9086
F10.873509509390503
sI9088
F12.126272477885871
sI9090
F13.918031947113926
sI9091
F13.918031947113926
sI9092
F12.531737585994035
sI9093
F12.819419658445817
sI9094
F10.28044578738754
sI9096
F13.918031947113926
sI9097
F13.918031947113926
sI9098
F13.918031947113926
sI9100
F11.720807369777706
sI9101
F9.6005438335776159
sI9102
F9.6005438335776159
sI9104
F13.918031947113926
sI9107
F13.918031947113926
sI9108
F13.918031947113926
sI9109
F12.531737585994035
sI9110
F11.615446854119879
sI9111
F11.83859040543409
sI9112
F11.35308258965239
sI9113
F6.019249590143616
sI9114
F8.962204889512666
sI9115
F8.8941514262676495
sI9116
F13.918031947113926
sI9119
F10.82698949375561
sI9120
F13.918031947113926
sI9121
F12.308594034679825
sI9122
F13.918031947113926
sI9125
F13.918031947113926
sI9128
F11.83859040543409
sI9130
F11.145443224874144
sI9132
F13.918031947113926
sI9135
F13.918031947113926
sI9137
F10.739978116765981
sI9140
F12.819419658445817
sI9141
F13.224884766553981
sI9144
F13.918031947113926
sI9148
F12.308594034679825
sI9150
F9.9290479005496515
sI9152
F12.531737585994035
sI9154
F12.308594034679825
sI9155
F8.92759936033519
sI9156
F9.857588936567506
sI9157
F12.819419658445817
sI9158
F10.334513008657815
sI9160
F10.254470300984279
sI9161
F13.918031947113926
sI9162
F13.224884766553981
sI9163
F13.918031947113926
sI9164
F12.308594034679825
sI9165
F10.254470300984279
sI9166
F13.224884766553981
sI9167
F10.873509509390503
sI9168
F11.520136674315555
sI9169
F11.084818603057709
sI9170
F11.615446854119879
sI9171
F11.720807369777706
sI9172
F10.362683885624511
sI9174
F11.35308258965239
sI9175
F10.622195081109597
sI9176
F12.531737585994035
sI9177
F11.615446854119879
sI9178
F11.35308258965239
sI9180
F11.615446854119879
sI9182
F11.615446854119879
sI9183
F11.615446854119879
sI9184
F8.8428581318800994
sI9185
F10.026211649003299
sI9187
F12.308594034679825
sI9188
F13.224884766553981
sI9189
F13.918031947113926
sI9190
F11.720807369777706
sI9193
F12.308594034679825
sI9194
F11.615446854119879
sI9195
F9.1906441284015852
sI9196
F12.531737585994035
sI9197
F13.224884766553981
sI9198
F13.918031947113926
sI9199
F13.918031947113926
sI9200
F13.918031947113926
sI9201
F12.531737585994035
sI9202
F12.308594034679825
sI9203
F9.418222276783661
sI9204
F11.972121798058613
sI9205
F9.7436446772182883
sI9206
F10.111369457343606
sI9207
F11.209981746011715
sI9208
F13.224884766553981
sI9209
F11.615446854119879
sI9210
F13.918031947113926
sI9211
F13.918031947113926
sI9212
F9.9862063143895998
sI9213
F12.531737585994035
sI9214
F11.35308258965239
sI9215
F12.531737585994035
sI9216
F12.819419658445817
sI9218
F10.421524385647446
sI9219
F9.3536837556460899
sI9220
F9.5872986068275949
sI9221
F10.739978116765981
sI9222
F13.918031947113926
sI9223
F9.8926802563787763
sI9224
F9.6695367050645675
sI9225
F9.0897182098116254
sI9228
F12.126272477885871
sI9229
F13.918031947113926
sI9230
F11.520136674315555
sI9233
F8.7822335100636639
sI9234
F11.433125297325926
sI9235
F11.972121798058613
sI9236
F13.224884766553981
sI9237
F11.145443224874144
sI9238
F12.819419658445817
sI9239
F10.362683885624511
sI9240
F9.1473473226482618
sI9241
F10.82698949375561
sI9242
F12.819419658445817
sI9243
F11.972121798058613
sI9244
F12.126272477885871
sI9245
F11.433125297325926
sI9246
F13.224884766553981
sI9247
F9.5872986068275949
sI9248
F12.531737585994035
sI9249
F12.819419658445817
sI9250
F10.622195081109597
sI9251
F10.873509509390503
sI9254
F13.224884766553981
sI9255
F11.83859040543409
sI9256
F8.5153545652416458
sI9257
F11.278974617498667
sI9258
F8.3196099881155519
sI9259
F9.8071580829406138
sI9260
F10.180362328830558
sI9261
F11.027660189217761
sI9262
F8.7589766478993969
sI9263
F11.209981746011715
sI9264
F9.5742265252602419
sI9265
F10.28044578738754
sI9266
F11.83859040543409
sI9267
F12.126272477885871
sI9268
F13.224884766553981
sI9269
F12.126272477885871
sI9270
F9.6985242419378181
sI9274
F11.972121798058613
sI9275
F12.126272477885871
sI9278
F13.918031947113926
sI9279
F13.918031947113926
sI9280
F10.782537731184776
sI9281
F11.615446854119879
sI9282
F13.224884766553981
sI9283
F13.224884766553981
sI9284
F12.126272477885871
sI9286
F12.308594034679825
sI9287
F9.7908975620688334
sI9288
F8.5520559320920739
sI9289
F11.278974617498667
sI9290
F10.699156122245725
sI9291
F13.918031947113926
sI9292
F11.35308258965239
sI9297
F12.126272477885871
sI9298
F13.224884766553981
sI9299
F12.531737585994035
sI9300
F12.531737585994035
sI9301
F13.224884766553981
sI9302
F12.531737585994035
sI9303
F11.433125297325926
sI9304
F13.224884766553981
sI9305
F11.972121798058613
sI9306
F11.520136674315555
sI9307
F11.83859040543409
sI9308
F11.520136674315555
sI9309
F11.720807369777706
sI9312
F12.531737585994035
sI9313
F13.918031947113926
sI9314
F12.308594034679825
sI9315
F11.972121798058613
sI9316
F10.659935409092444
sI9317
F11.027660189217761
sI9318
F10.204459880409619
sI9319
F13.918031947113926
sI9320
F13.918031947113926
sI9321
F12.819419658445817
sI9322
F11.83859040543409
sI9323
F11.278974617498667
sI9325
F10.739978116765981
sI9326
F10.334513008657815
sI9327
F10.111369457343606
sI9329
F11.83859040543409
sI9330
F13.918031947113926
sI9331
F11.972121798058613
sI9332
F13.224884766553981
sI9333
F13.224884766553981
sI9334
F13.918031947113926
sI9335
F11.720807369777706
sI9338
F12.308594034679825
sI9339
F8.6657585190672961
sI9341
F12.308594034679825
sI9342
F10.334513008657815
sI9344
F13.918031947113926
sI9345
F13.224884766553981
sI9346
F13.918031947113926
sI9347
F13.918031947113926
sI9348
F11.278974617498667
sI9349
F13.918031947113926
sI9350
F9.8749806792793748
sI9351
F11.83859040543409
sI9352
F9.3229120969793353
sI9353
F13.224884766553981
sI9354
F13.918031947113926
sI9356
F10.585827436938722
sI9357
F12.308594034679825
sI9358
F9.3854324539606697
sI9362
F11.83859040543409
sI9363
F11.027660189217761
sI9364
F12.531737585994035
sI9365
F13.918031947113926
sI9366
F11.83859040543409
sI9367
F9.7133393277229594
sI9369
F11.433125297325926
sI9370
F13.918031947113926
sI9373
F12.308594034679825
sI9374
F12.126272477885871
sI9375
F11.720807369777706
sI9376
F13.918031947113926
sI9377
F12.819419658445817
sI9378
F11.615446854119879
sI9379
F13.224884766553981
sI9380
F13.224884766553981
sI9381
F13.224884766553981
sI9382
F13.224884766553981
sI9383
F13.918031947113926
sI9384
F13.918031947113926
sI9388
F10.873509509390503
sI9389
F13.918031947113926
sI9390
F13.918031947113926
sI9391
F13.224884766553981
sI9392
F12.126272477885871
sI9393
F12.531737585994035
sI9394
F12.819419658445817
sI9395
F13.918031947113926
sI9396
F13.224884766553981
sI9397
F13.918031947113926
sI9398
F13.918031947113926
sI9399
F13.918031947113926
sI9400
F13.918031947113926
sI9401
F13.918031947113926
sI9402
F13.918031947113926
sI9403
F13.918031947113926
sI9404
F13.918031947113926
sI9405
F9.0428346239127748
sI9406
F13.224884766553981
sI9407
F8.2310565907741058
sI9408
F11.83859040543409
sI9409
F12.126272477885871
sI9410
F12.308594034679825
sI9411
F12.126272477885871
sI9412
F13.224884766553981
sI9413
F13.918031947113926
sI9414
F8.8060441587573823
sI9415
F8.8060441587573823
sI9416
F12.819419658445817
sI9417
F11.83859040543409
sI9419
F11.520136674315555
sI9420
F13.224884766553981
sI9421
F12.531737585994035
sI9422
F13.918031947113926
sI9423
F12.531737585994035
sI9424
F13.224884766553981
sI9425
F13.918031947113926
sI9426
F13.918031947113926
sI9427
F13.918031947113926
sI9428
F13.918031947113926
sI9429
F13.918031947113926
sI9430
F13.918031947113926
sI9431
F13.224884766553981
sI9432
F13.224884766553981
sI9433
F13.918031947113926
sI9434
F13.918031947113926
sI9435
F13.918031947113926
sI9436
F13.918031947113926
sI9437
F13.918031947113926
sI9438
F11.83859040543409
sI9439
F13.918031947113926
sI9440
F13.918031947113926
sI9441
F12.308594034679825
sI9442
F13.918031947113926
sI9443
F13.918031947113926
sI9444
F13.918031947113926
sI9445
F12.819419658445817
sI9446
F13.918031947113926
sI9447
F13.224884766553981
sI9448
F13.918031947113926
sI9449
F12.819419658445817
sI9450
F12.819419658445817
sI9451
F12.531737585994035
sI9452
F12.819419658445817
sI9453
F13.224884766553981
sI9454
F12.819419658445817
sI9455
F12.308594034679825
sI9456
F13.918031947113926
sI9457
F12.819419658445817
sI9458
F13.224884766553981
sI9459
F12.308594034679825
sI9460
F12.531737585994035
sI9461
F11.83859040543409
sI9463
F13.918031947113926
sI9464
F13.918031947113926
sI9465
F13.224884766553981
sI9466
F10.089390550624831
sI9467
F13.224884766553981
sI9468
F13.918031947113926
sI9469
F11.145443224874144
sI9470
F10.659935409092444
sI9471
F13.918031947113926
sI9472
F13.224884766553981
sI9473
F9.8926802563787763
sI9474
F12.126272477885871
sI9475
F9.8404945032082072
sI9477
F11.720807369777706
sI9478
F13.918031947113926
sI9479
F12.819419658445817
sI9480
F13.224884766553981
sI9481
F13.918031947113926
sI9486
F12.531737585994035
sI9487
F11.83859040543409
sI9488
F11.83859040543409
sI9489
F11.615446854119879
sI9490
F11.83859040543409
sI9491
F11.145443224874144
sI9493
F12.531737585994035
sI9496
F10.739978116765981
sI9497
F10.22915249299999
sI9499
F13.918031947113926
sI9500
F11.615446854119879
sI9504
F13.224884766553981
sI9506
F11.35308258965239
sI9507
F13.224884766553981
sI9513
F11.433125297325926
sI9514
F10.739978116765981
sI9515
F13.224884766553981
sI9516
F13.918031947113926
sI9517
F12.819419658445817
sI9519
F13.918031947113926
sI9520
F12.819419658445817
sI9521
F13.918031947113926
sI9522
F13.224884766553981
sI9523
F13.224884766553981
sI9524
F13.918031947113926
sI9525
F13.918031947113926
sI9526
F13.918031947113926
sI9527
F12.819419658445817
sI9528
F13.918031947113926
sI9529
F12.308594034679825
sI9530
F13.918031947113926
sI9531
F12.308594034679825
sI9532
F13.918031947113926
sI9533
F13.918031947113926
sI9534
F13.918031947113926
sI9535
F13.918031947113926
sI9540
F13.918031947113926
sI9543
F12.126272477885871
sI9548
F12.819419658445817
sI9550
F11.83859040543409
sI9551
F13.918031947113926
sI9552
F13.918031947113926
sI9553
F13.224884766553981
sI9566
F13.918031947113926
sI9570
F12.126272477885871
sI9575
F11.520136674315555
sI9576
F12.308594034679825
sI9577
F13.918031947113926
sI9578
F13.918031947113926
sI9579
F13.918031947113926
sI9580
F9.6839254425166672
sI9581
F10.307114034469702
sI9582
F13.224884766553981
sI9583
F13.918031947113926
sI9584
F13.918031947113926
sI9585
F13.918031947113926
sI9586
F13.224884766553981
sI9587
F13.918031947113926
sI9589
F9.0053770613778745
sI9590
F10.307114034469702
sI9591
F10.699156122245725
sI9592
F8.4712945754476152
sI9593
F7.6338977860431241
sI9594
F9.1473473226482618
sI9595
F11.433125297325926
sI9596
F13.918031947113926
sI9597
F11.027660189217761
sI9598
F13.918031947113926
sI9599
F12.308594034679825
sI9600
F11.720807369777706
sI9601
F8.338302121127704
sI9602
F8.6348282183759366
sI9603
F13.918031947113926
sI9604
F13.224884766553981
sI9610
F13.918031947113926
sI9614
F13.918031947113926
sI9622
F11.278974617498667
sI9623
F12.126272477885871
sI9624
F13.918031947113926
sI9625
F11.520136674315555
sI9628
F10.28044578738754
sI9629
F11.972121798058613
sI9630
F12.531737585994035
sI9631
F12.531737585994035
sI9633
F13.918031947113926
sI9634
F13.918031947113926
sI9635
F13.918031947113926
sI9636
F13.918031947113926
sI9637
F13.918031947113926
sI9639
F9.097750381508888
sI9640
F11.433125297325926
sI9641
F11.83859040543409
sI9644
F13.224884766553981
sI9645
F13.224884766553981
sI9646
F13.224884766553981
sI9647
F13.918031947113926
sI9650
F12.308594034679825
sI9652
F13.224884766553981
sI9653
F13.224884766553981
sI9654
F13.918031947113926
sI9655
F13.224884766553981
sI9656
F13.918031947113926
sI9657
F13.224884766553981
sI9658
F11.084818603057709
sI9682
F13.918031947113926
sI9683
F9.6695367050645675
sI9684
F12.308594034679825
sI9685
F10.82698949375561
sI9687
F10.873509509390503
sI9688
F13.918031947113926
sI9689
F13.918031947113926
sI9692
F13.918031947113926
sI9693
F13.224884766553981
sI9694
F13.918031947113926
sI9695
F11.720807369777706
sI9696
F12.531737585994035
sI9700
F13.224884766553981
sI9703
F13.224884766553981
sI9707
F13.918031947113926
sI9713
F13.918031947113926
sI9714
F13.918031947113926
sI9716
F12.308594034679825
sI9717
F13.918031947113926
sI9718
F11.35308258965239
sI9719
F11.720807369777706
sI9720
F11.972121798058613
sI9721
F11.972121798058613
sI9722
F13.224884766553981
sI9723
F13.918031947113926
sI9725
F13.918031947113926
sI9727
F13.918031947113926
sI9728
F13.918031947113926
sI9730
F9.7283772050875008
sI9732
F11.615446854119879
sI9733
F11.433125297325926
sI9734
F13.224884766553981
sI9735
F11.720807369777706
sI9736
F12.531737585994035
sI9739
F10.973592967947486
sI9743
F11.720807369777706
sI9744
F11.720807369777706
sI9745
F13.224884766553981
sI9746
F13.224884766553981
sI9748
F13.918031947113926
sI9750
F13.224884766553981
sI9751
F13.918031947113926
sI9754
F12.819419658445817
sI9755
F11.83859040543409
sI9756
F11.615446854119879
sI9759
F13.224884766553981
sI9760
F11.433125297325926
sI9761
F12.819419658445817
sI9762
F13.918031947113926
sI9763
F13.918031947113926
sI9764
F13.918031947113926
sI9765
F13.918031947113926
sI9766
F13.918031947113926
sI9767
F13.918031947113926
sI9768
F11.83859040543409
sI9770
F13.918031947113926
sI9771
F13.918031947113926
sI9772
F13.918031947113926
sI9773
F12.308594034679825
sI9774
F13.918031947113926
sI9775
F12.819419658445817
sI9776
F13.918031947113926
sI9780
F13.918031947113926
sI9784
F13.918031947113926
sI9785
F13.918031947113926
sI9786
F9.1818334987194294
sI9788
F13.918031947113926
sI9789
F11.615446854119879
sI9790
F10.922299673559936
sI9793
F13.918031947113926
sI9794
F12.819419658445817
sI9795
F12.308594034679825
sI9796
F13.918031947113926
sI9797
F11.972121798058613
sI9798
F13.918031947113926
sI9799
F12.308594034679825
sI9800
F13.918031947113926
sI9801
F12.819419658445817
sI9802
F13.224884766553981
sI9803
F11.084818603057709
sI9804
F9.5235827924414878
sI9805
F9.5235827924414878
sI9806
F13.918031947113926
sI9808
F11.433125297325926
sI9809
F13.224884766553981
sI9811
F12.819419658445817
sI9812
F10.452296044314199
sI9813
F10.659935409092444
sI9814
F9.857588936567506
sI9815
F12.308594034679825
sI9816
F12.531737585994035
sI9828
F10.739978116765981
sI9829
F10.204459880409619
sI9830
F13.918031947113926
sI9832
F11.520136674315555
sI9835
F13.918031947113926
sI9836
F13.918031947113926
sI9837
F11.615446854119879
sI9839
F11.209981746011715
sI9841
F11.520136674315555
sI9842
F13.224884766553981
sI9843
F13.918031947113926
sI9844
F13.918031947113926
sI9845
F11.35308258965239
sI9847
F10.699156122245725
sI9848
F11.278974617498667
sI9855
F13.918031947113926
sI9856
F13.918031947113926
sI9857
F13.224884766553981
sI9858
F12.819419658445817
sI9859
F13.918031947113926
sI9860
F13.224884766553981
sI9862
F13.918031947113926
sI9863
F12.819419658445817
sI9864
F13.918031947113926
sI9865
F13.918031947113926
sI9866
F11.615446854119879
sI9867
F13.918031947113926
sI9869
F13.918031947113926
sI9870
F13.918031947113926
sI9872
F13.918031947113926
sI9873
F13.918031947113926
sI9874
F13.918031947113926
sI9875
F13.224884766553981
sI9877
F13.918031947113926
sI9879
F13.918031947113926
sI9880
F13.918031947113926
sI9881
F13.918031947113926
sI9882
F13.918031947113926
sI9885
F13.918031947113926
sI9886
F12.126272477885871
sI9887
F11.615446854119879
sI9888
F12.819419658445817
sI9889
F12.308594034679825
sI9894
F13.918031947113926
sI9898
F12.308594034679825
sI9902
F11.83859040543409
sI9903
F11.972121798058613
sI9910
F13.918031947113926
sI9916
F13.224884766553981
sI9917
F13.224884766553981
s.